
Allocating common symbols
Common symbol       size              file

old_stack           0x4               /tmp/cc3OVsZb.o
free_blocks         0x4               main.o
main_stack          0x1000            /tmp/cc3OVsZb.o

Memory Configuration

Name             Origin             Length             Attributes
ram              0x10100000         0x00100000
*default*        0x00000000         0xffffffff

Linker script and memory map

LOAD /tmp/cc3OVsZb.o
LOAD dbug.o
LOAD memory.o
LOAD main.o
START GROUP
LOAD /opt/gcc-coldfire/bin/../lib/gcc/m68k-elf/4.3.2/m5307/libgcc.a
END GROUP
                0x00000000                __DYNAMIC = 0x0
                0x00000000                PROVIDE (hardware_init_hook, 0x0)
                0x00000000                PROVIDE (_hardware_init_hook, 0x0)
                0x00000000                PROVIDE (software_init_hook, 0x0)
                0x00000000                PROVIDE (_software_init_hook, 0x0)

.text           0x10100000      0xf3a
 *(.text)
 .text          0x10100000       0x1e /tmp/cc3OVsZb.o
 *fill*         0x1010001e        0x2 00
 .text          0x10100020       0x5c dbug.o
                0x10100040                rtx_dbug_outs
                0x10100020                rtx_dbug_out_char
 .text          0x1010007c      0x1ea memory.o
                0x101000e2                s_release_memory_block
                0x1010007c                s_request_memory_block
                0x101001d4                initBlock
 *fill*         0x10100266        0x2 00
 .text          0x10100268      0xac2 main.o
                0x10100478                rtx_ltostr
                0x10100268                __main
                0x101007a2                rtxeval_dbug_printf
                0x1010054e                rtx_xtostr
                0x10100a18                t_reverse_release_blks
                0x10100aae                t_head_tail_release_blks
                0x10100c78                t_mem_leak
                0x10100644                rtx_vsprintf
                0x1010060c                rtx_dbug_out_char_lf
                0x1010088e                t_request_blks
                0x10100984                t_release_blks
                0x10100272                main
                0x10100bd2                t_sz_blks
                0x101007e0                bubble_sort
                0x10100d2c                . = ALIGN (0x4)
 *fill*         0x10100d2a        0x2 00
                0x10100d2c                __CTOR_LIST__ = .
                0x10100d2c        0x4 LONG 0x0 (((__CTOR_END__ - __CTOR_LIST__) / 0x4) - 0x2)
 *(.ctors)
                0x10100d30        0x4 LONG 0x0
                0x10100d34                __CTOR_END__ = .
                0x10100d34                __DTOR_LIST__ = .
                0x10100d34        0x4 LONG 0x0 (((__DTOR_END__ - __DTOR_LIST__) / 0x4) - 0x2)
 *(.dtors)
                0x10100d38        0x4 LONG 0x0
                0x10100d3c                __DTOR_END__ = .
 *(.rodata*)
 .rodata        0x10100d3c        0x4 memory.o
                0x10100d3d                FREE
                0x10100d3f                FAILURE
                0x10100d3e                SUCCESS
                0x10100d3c                USED
 .rodata        0x10100d40      0x1ea main.o
 *(.gcc_except_table)
                0x10100f2a                __INIT_SECTION__ = .
                0x10100f2a        0x4 LONG 0x4e560000
 *(.init)
                0x10100f2e        0x2 SHORT 0x4e5e
                0x10100f30        0x2 SHORT 0x4e75
                0x10100f32                __FINI_SECTION__ = .
                0x10100f32        0x4 LONG 0x4e560000
 *(.fini)
                0x10100f36        0x2 SHORT 0x4e5e
                0x10100f38        0x2 SHORT 0x4e75
                0x10100f3a                _etext = .
 *(.lit)

.data           0x10100f3c        0x4
 *(.shdata)
 *(.data)
 .data          0x10100f3c        0x0 /tmp/cc3OVsZb.o
 .data          0x10100f3c        0x0 dbug.o
 .data          0x10100f3c        0x0 memory.o
 .data          0x10100f3c        0x4 main.o
                0x10100f3c                p_end_kernel
                0x10100f40                _edata = .

.bss            0x10100f40     0x1024
                0x10100f40                __bss_start = .
 *(.shbss)
 *(.bss)
 .bss           0x10100f40        0x0 /tmp/cc3OVsZb.o
 .bss           0x10100f40        0x0 dbug.o
 .bss           0x10100f40        0x0 memory.o
 .bss           0x10100f40        0x4 main.o
                0x10100f40                used_blocks
 *(COMMON)
 *fill*         0x10100f44        0xc 00
 COMMON         0x10100f50     0x1010 /tmp/cc3OVsZb.o
                0x10100f50                old_stack
                0x10100f60                main_stack
 COMMON         0x10101f60        0x4 main.o
                0x10101f60                free_blocks
                0x10101f68                _end = ALIGN (0x8)
                0x10101f68                __end = _end

.stab
 *(.stab)

.stabstr
 *(.stabstr)

__REGISTER_RTX__
                0x10300000        0x0
                0x10300000                __REGISTER_RTX_ENTRY__ = <code 345> (.)
 *(__REGISTER_RTX__)
                0x10380000                __REGISTER_TEST_PROCS_ENTRY__ = 0x10380000
                0x10400000                __RTX_TEST_CODE_ENTRY__ = 0x10400000

__RTX_TEST_DATA__
 *(__RTX_TEST_DATA__)
OUTPUT(main.bin elf32-m68k)

.comment        0x00000000       0x75
 .comment       0x00000000       0x27 dbug.o
 .comment       0x00000027       0x27 memory.o
 .comment       0x0000004e       0x27 main.o
