
rtx.bin:     file format elf32-m68k
rtx.bin
architecture: m68k:isa-a:mac, flags 0x00000112:
EXEC_P, HAS_SYMS, D_PAGED
start address 0x10100000

Program Header:
    LOAD off    0x00002000 vaddr 0x10100000 paddr 0x10100000 align 2**13
         filesz 0x00001cb6 memsz 0x00002e1e flags rwx
    LOAD off    0x00004000 vaddr 0x10300000 paddr 0x10300000 align 2**13
         filesz 0x00000084 memsz 0x00000084 flags r-x
    LOAD off    0x00006000 vaddr 0x10500000 paddr 0x10500000 align 2**13
         filesz 0x0000005c memsz 0x0000005c flags rw-
private flags = 12: [isa A] [mac]

Sections:
Idx Name          Size      VMA       LMA       File off  Algn
  0 .text         00001cb6  10100000  10100000  00002000  2**2
                  CONTENTS, ALLOC, LOAD, READONLY, CODE
  1 .bss          00001166  10101cb8  10101cb8  00003cb6  2**4
                  ALLOC
  2 __REGISTER_RTX__ 00000084  10300000  10300000  00004000  2**1
                  CONTENTS, ALLOC, LOAD, READONLY, CODE
  3 __RTX_TEST_DATA__ 0000005c  10500000  10500000  00006000  2**1
                  CONTENTS, ALLOC, LOAD, DATA
  4 .comment      0000015f  00000000  00000000  0000605c  2**0
                  CONTENTS, READONLY
SYMBOL TABLE:
10100000 l    d  .text	00000000 .text
10101cb8 l    d  .bss	00000000 .bss
10300000 l    d  __REGISTER_RTX__	00000000 __REGISTER_RTX__
10500000 l    d  __RTX_TEST_DATA__	00000000 __RTX_TEST_DATA__
00000000 l    d  .comment	00000000 .comment
00000000 l    df *ABS*	00000000 process.c
00000000 l    df *ABS*	00000000 init.c
00000000 l    df *ABS*	00000000 memory.c
00000000 l    df *ABS*	00000000 dbug.c
00000000 l    df *ABS*	00000000 kcd.c
00000000 l    df *ABS*	00000000 messaging.c
00000000 l    df *ABS*	00000000 rtx.c
00000000 l    df *ABS*	00000000 main_rtx.c
00000000 l    df *ABS*	00000000 iprocess.c
10101674 g     F .text	0000000a __main
1010061c g     F .text	00000048 is_waiting_for
10100c28 g     F .text	000000ce init_kcd
10101cc0 g     O .bss	00000004 used_blocks
10102d20 g     O .bss	000000c4 p
10100164 g     F .text	0000002e release_processor_kuma_san
10500020 g     O __RTX_TEST_DATA__	0000003c g_test_proc
10101976 g     F .text	00000018 coldfire_vbr_init
10400000 g       *ABS*	00000000 __RTX_TEST_CODE_ENTRY__
10100664 g     F .text	00000026 set_process_state
10102ce8 g     O .bss	0000001c mailboxStart
10101cb6 g       .text	00000000 _etext
101000b2 g     F .text	000000b2 init_null_process
101002e4 g     F .text	0000018c trap_call_animal
10101b20 g       .text	00000000 __DTOR_END__
10100280 g     F .text	00000064 stack_pointer_switcher
10101cae g       .text	00000000 __FINI_SECTION__
10102de4 g     O .bss	00000008 blocked_queue
101004cc g     F .text	0000004c get_process_number_from_ID
00000000 g       *ABS*	00000000 __DYNAMIC
10101bc5 g     O .text	00000001 FREE
10100cf6 g     F .text	00000242 kcd
10500000 g     O __RTX_TEST_DATA__	00000020 g_test_fixture
10300000 g       *ABS*	00000000 __REGISTER_RTX_ENTRY__
10101cb8 g     O .bss	00000004 current_running_process
101000a8 g     F .text	0000000a null_process
10100720 g     F .text	0000009a put_to_blocked
10100bec g     F .text	0000003c rtx_dbug_outs
10101228 g     F .text	0000003a init_mailboxes
10101cd0 g     O .bss	00000004 old_stack
10380000 g       *ABS*	00000000 __REGISTER_TEST_PROCS_ENTRY__
10101646 g     F .text	0000002e get_process_priority
10101ca6 g       .text	00000000 __INIT_SECTION__
10101560 g     F .text	00000028 request_memory_block
1010160e g     F .text	00000038 set_process_priority
10100bcc g     F .text	00000020 rtx_dbug_out_char
10102dec g     O .bss	00000014 ready_queue
10102d04 g     O .bss	0000001c mailboxEnd
10102ce0 g     O .bss	00000004 free_blocks
10101b10 g       .text	00000000 __CTOR_LIST__
101014f4 g     F .text	00000038 send_message
10101bc7 g     O .text	00000001 FAILURE
101008fe g     F .text	0000007a remove_first_from_blocked
10102e20 g       .bss	00000000 __end
10101ce0 g     O .bss	00001000 main_stack
101005d4 g     F .text	00000048 process_exists
10102ce4 g     O .bss	00000004 mem_end
10101cbc g     O .bss	00000004 prev_running_process
10101262 g     F .text	00000126 send_message_jessie
10101bc6 g     O .text	00000001 SUCCESS
10102e1c g     O .bss	00000001 charOut
10100f38 g     F .text	000002ee handle_time_string
1010068c g     F .text	00000094 put_to_ready
10101588 g     F .text	0000002e release_memory_block
10101cb8 g       .bss	00000000 __bss_start
1010167e g     F .text	000002f8 main
1010198e g     F .text	000000be init_interrupts
1010084a g     F .text	000000b4 remove_from_blocked
10101388 g     F .text	00000162 receive_message_jessie
10102e00 g     O .bss	0000001c null_p
10100064 g       .text	00000000 asm_serial_entry
10101b18 g       .text	00000000 __CTOR_END__
10101b18 g       .text	00000000 __DTOR_LIST__
10100020 g       .text	00000000 asm_trap_entry
10102e1d g     O .bss	00000001 charIn
1010055a g     F .text	0000007a set_process_priority_yama_san
10101bc4 g     O .text	00000001 USED
1010052a g     F .text	00000030 get_process_priority_usagi_san
101014ea g     F .text	00000008 delayed_send_umi_san
10101cb8 g       .bss	00000000 _edata
1010152c g     F .text	00000034 receive_message
10102e20 g       .bss	00000000 _end
101015cc g     F .text	00000042 delayed_send
10100470 g     F .text	0000005c get_process_from_ID
101015b6 g     F .text	00000016 release_processor
10100192 g     F .text	00000014 schedule_next_process
10101a4c g     F .text	000000c2 uart_i_process
10100af8 g     F .text	000000d2 initBlock
10300000 g     F __REGISTER_RTX__	00000084 register_rtx
10100978 g     F .text	00000082 s_request_memory_block_yishi
10100518 g     F .text	00000012 get_process_ID
101007ba g     F .text	00000090 remove_from_ready
101009fa g     F .text	000000fe s_release_memory_block_yishi
101001a6 g     F .text	000000da schedule_next_process_neko_san


Disassembly of section .text:

10100000 <asm_trap_entry-0x20>:
10100000:	23cf 1010 1cd0 	movel %sp,10101cd0 <old_stack>
10100006:	2e7c 1010 2ce0 	moveal #269495520,%sp
1010000c:	4eb9 1010 167e 	jsr 1010167e <main>
10100012:	2e79 1010 1cd0 	moveal 10101cd0 <old_stack>,%sp
10100018:	2e00           	movel %d0,%d7
1010001a:	7000           	moveq #0,%d0
1010001c:	4e4f           	trap #15
	...

10100020 <asm_trap_entry>:
10100020:	2f00           	movel %d0,%sp@-
10100022:	2f01           	movel %d1,%sp@-
10100024:	2f02           	movel %d2,%sp@-
10100026:	2f03           	movel %d3,%sp@-
10100028:	2f04           	movel %d4,%sp@-
1010002a:	2f05           	movel %d5,%sp@-
1010002c:	2f06           	movel %d6,%sp@-
1010002e:	2f07           	movel %d7,%sp@-
10100030:	2f08           	movel %a0,%sp@-
10100032:	2f09           	movel %a1,%sp@-
10100034:	2f0a           	movel %a2,%sp@-
10100036:	2f0b           	movel %a3,%sp@-
10100038:	2f0c           	movel %a4,%sp@-
1010003a:	2f0d           	movel %a5,%sp@-
1010003c:	2f0e           	movel %fp,%sp@-
1010003e:	4eb9 1010 02e4 	jsr 101002e4 <trap_call_animal>
10100044:	2c5f           	moveal %sp@+,%fp
10100046:	2a5f           	moveal %sp@+,%a5
10100048:	285f           	moveal %sp@+,%a4
1010004a:	265f           	moveal %sp@+,%a3
1010004c:	245f           	moveal %sp@+,%a2
1010004e:	225f           	moveal %sp@+,%a1
10100050:	205f           	moveal %sp@+,%a0
10100052:	2e1f           	movel %sp@+,%d7
10100054:	2c1f           	movel %sp@+,%d6
10100056:	2a1f           	movel %sp@+,%d5
10100058:	281f           	movel %sp@+,%d4
1010005a:	261f           	movel %sp@+,%d3
1010005c:	241f           	movel %sp@+,%d2
1010005e:	221f           	movel %sp@+,%d1
10100060:	201f           	movel %sp@+,%d0
10100062:	4e73           	rte

10100064 <asm_serial_entry>:
10100064:	2f00           	movel %d0,%sp@-
10100066:	2f01           	movel %d1,%sp@-
10100068:	2f02           	movel %d2,%sp@-
1010006a:	2f03           	movel %d3,%sp@-
1010006c:	2f04           	movel %d4,%sp@-
1010006e:	2f05           	movel %d5,%sp@-
10100070:	2f06           	movel %d6,%sp@-
10100072:	2f07           	movel %d7,%sp@-
10100074:	2f08           	movel %a0,%sp@-
10100076:	2f09           	movel %a1,%sp@-
10100078:	2f0a           	movel %a2,%sp@-
1010007a:	2f0b           	movel %a3,%sp@-
1010007c:	2f0c           	movel %a4,%sp@-
1010007e:	2f0d           	movel %a5,%sp@-
10100080:	2f0e           	movel %fp,%sp@-
10100082:	4eb9 1010 1a4c 	jsr 10101a4c <uart_i_process>
10100088:	2c5f           	moveal %sp@+,%fp
1010008a:	2a5f           	moveal %sp@+,%a5
1010008c:	285f           	moveal %sp@+,%a4
1010008e:	265f           	moveal %sp@+,%a3
10100090:	245f           	moveal %sp@+,%a2
10100092:	225f           	moveal %sp@+,%a1
10100094:	205f           	moveal %sp@+,%a0
10100096:	2e1f           	movel %sp@+,%d7
10100098:	2c1f           	movel %sp@+,%d6
1010009a:	2a1f           	movel %sp@+,%d5
1010009c:	281f           	movel %sp@+,%d4
1010009e:	261f           	movel %sp@+,%d3
101000a0:	241f           	movel %sp@+,%d2
101000a2:	221f           	movel %sp@+,%d1
101000a4:	201f           	movel %sp@+,%d0
101000a6:	4e73           	rte

101000a8 <null_process>:
101000a8:	4e56 0000      	linkw %fp,#0
101000ac:	4eba 00b6      	jsr %pc@(10100164 <release_processor_kuma_san>)
101000b0:	60fa           	bras 101000ac <null_process+0x4>

101000b2 <init_null_process>:
101000b2:	4e56 fff8      	linkw %fp,#-8
101000b6:	206e 0008      	moveal %fp@(8),%a0
101000ba:	42a8 0004      	clrl %a0@(4)
101000be:	206e 0008      	moveal %fp@(8),%a0
101000c2:	70fe           	moveq #-2,%d0
101000c4:	2140 0008      	movel %d0,%a0@(8)
101000c8:	206e 0008      	moveal %fp@(8),%a0
101000cc:	7004           	moveq #4,%d0
101000ce:	2140 0010      	movel %d0,%a0@(16)
101000d2:	202e 000c      	movel %fp@(12),%d0
101000d6:	206e 0008      	moveal %fp@(8),%a0
101000da:	2080           	movel %d0,%a0@
101000dc:	206e 0008      	moveal %fp@(8),%a0
101000e0:	42a8 0014      	clrl %a0@(20)
101000e4:	206e 0008      	moveal %fp@(8),%a0
101000e8:	70ff           	moveq #-1,%d0
101000ea:	2140 0018      	movel %d0,%a0@(24)
101000ee:	200f           	movel %sp,%d0
101000f0:	2d40 fffc      	movel %d0,%fp@(-4)
101000f4:	206e 0008      	moveal %fp@(8),%a0
101000f8:	2010           	movel %a0@,%d0
101000fa:	2d40 fff8      	movel %d0,%fp@(-8)
101000fe:	202e fff8      	movel %fp@(-8),%d0
10100102:	2e40           	moveal %d0,%sp
10100104:	203c 1010 00a8 	movel #269484200,%d0
1010010a:	2d40 fff8      	movel %d0,%fp@(-8)
1010010e:	202e fff8      	movel %fp@(-8),%d0
10100112:	2000           	movel %d0,%d0
10100114:	2f00           	movel %d0,%sp@-
10100116:	7004           	moveq #4,%d0
10100118:	2d40 fff8      	movel %d0,%fp@(-8)
1010011c:	202e fff8      	movel %fp@(-8),%d0
10100120:	3000           	movew %d0,%d0
10100122:	3f00           	movew %d0,%sp@-
10100124:	203c 0000 4080 	movel #16512,%d0
1010012a:	2d40 fff8      	movel %d0,%fp@(-8)
1010012e:	202e fff8      	movel %fp@(-8),%d0
10100132:	3000           	movew %d0,%d0
10100134:	3f00           	movew %d0,%sp@-
10100136:	206e 0008      	moveal %fp@(8),%a0
1010013a:	2010           	movel %a0@,%d0
1010013c:	5180           	subql #8,%d0
1010013e:	206e 0008      	moveal %fp@(8),%a0
10100142:	2080           	movel %d0,%a0@
10100144:	202e fffc      	movel %fp@(-4),%d0
10100148:	2e40           	moveal %d0,%sp
1010014a:	2f2e 0008      	movel %fp@(8),%sp@-
1010014e:	4eb9 1010 068c 	jsr 1010068c <put_to_ready>
10100154:	588f           	addql #4,%sp
10100156:	206e 0008      	moveal %fp@(8),%a0
1010015a:	7003           	moveq #3,%d0
1010015c:	2140 000c      	movel %d0,%a0@(12)
10100160:	4e5e           	unlk %fp
10100162:	4e75           	rts

10100164 <release_processor_kuma_san>:
10100164:	4e56 0000      	linkw %fp,#0
10100168:	2079 1010 1cb8 	moveal 10101cb8 <__bss_start>,%a0
1010016e:	2028 000c      	movel %a0@(12),%d0
10100172:	7202           	moveq #2,%d1
10100174:	b280           	cmpl %d0,%d1
10100176:	6610           	bnes 10100188 <release_processor_kuma_san+0x24>
10100178:	2039 1010 1cb8 	movel 10101cb8 <__bss_start>,%d0
1010017e:	2f00           	movel %d0,%sp@-
10100180:	4eb9 1010 068c 	jsr 1010068c <put_to_ready>
10100186:	588f           	addql #4,%sp
10100188:	4eba 001c      	jsr %pc@(101001a6 <schedule_next_process_neko_san>)
1010018c:	4280           	clrl %d0
1010018e:	4e5e           	unlk %fp
10100190:	4e75           	rts

10100192 <schedule_next_process>:
10100192:	4e56 fffc      	linkw %fp,#-4
10100196:	42ae fffc      	clrl %fp@(-4)
1010019a:	202e fffc      	movel %fp@(-4),%d0
1010019e:	2000           	movel %d0,%d0
101001a0:	4e40           	trap #0
101001a2:	4e5e           	unlk %fp
101001a4:	4e75           	rts

101001a6 <schedule_next_process_neko_san>:
101001a6:	4e56 fffc      	linkw %fp,#-4
101001aa:	4879 1010 1b20 	pea 10101b20 <__DTOR_END__>
101001b0:	4eb9 1010 0bec 	jsr 10100bec <rtx_dbug_outs>
101001b6:	588f           	addql #4,%sp
101001b8:	42ae fffc      	clrl %fp@(-4)
101001bc:	6000 00a6      	braw 10100264 <schedule_next_process_neko_san+0xbe>
101001c0:	4879 1010 1b43 	pea 10101b43 <__DTOR_END__+0x23>
101001c6:	4eb9 1010 0bec 	jsr 10100bec <rtx_dbug_outs>
101001cc:	588f           	addql #4,%sp
101001ce:	202e fffc      	movel %fp@(-4),%d0
101001d2:	e588           	lsll #2,%d0
101001d4:	41f9 1010 2dec 	lea 10102dec <ready_queue>,%a0
101001da:	2030 0800      	movel %a0@(00000000,%d0:l),%d0
101001de:	4a80           	tstl %d0
101001e0:	677e           	beqs 10100260 <schedule_next_process_neko_san+0xba>
101001e2:	2079 1010 1cb8 	moveal 10101cb8 <__bss_start>,%a0
101001e8:	2228 0008      	movel %a0@(8),%d1
101001ec:	202e fffc      	movel %fp@(-4),%d0
101001f0:	e588           	lsll #2,%d0
101001f2:	41f9 1010 2dec 	lea 10102dec <ready_queue>,%a0
101001f8:	2070 0800      	moveal %a0@(00000000,%d0:l),%a0
101001fc:	2028 0008      	movel %a0@(8),%d0
10100200:	b081           	cmpl %d1,%d0
10100202:	6610           	bnes 10100214 <schedule_next_process_neko_san+0x6e>
10100204:	4879 1010 1b5d 	pea 10101b5d <__DTOR_END__+0x3d>
1010020a:	4eb9 1010 0bec 	jsr 10100bec <rtx_dbug_outs>
10100210:	588f           	addql #4,%sp
10100212:	604c           	bras 10100260 <schedule_next_process_neko_san+0xba>
10100214:	2039 1010 1cb8 	movel 10101cb8 <__bss_start>,%d0
1010021a:	23c0 1010 1cbc 	movel %d0,10101cbc <prev_running_process>
10100220:	202e fffc      	movel %fp@(-4),%d0
10100224:	e588           	lsll #2,%d0
10100226:	41f9 1010 2dec 	lea 10102dec <ready_queue>,%a0
1010022c:	2030 0800      	movel %a0@(00000000,%d0:l),%d0
10100230:	23c0 1010 1cb8 	movel %d0,10101cb8 <__bss_start>
10100236:	202e fffc      	movel %fp@(-4),%d0
1010023a:	2079 1010 1cb8 	moveal 10101cb8 <__bss_start>,%a0
10100240:	2228 0004      	movel %a0@(4),%d1
10100244:	e588           	lsll #2,%d0
10100246:	41f9 1010 2dec 	lea 10102dec <ready_queue>,%a0
1010024c:	2181 0800      	movel %d1,%a0@(00000000,%d0:l)
10100250:	2079 1010 1cb8 	moveal 10101cb8 <__bss_start>,%a0
10100256:	42a8 0004      	clrl %a0@(4)
1010025a:	4eba 0024      	jsr %pc@(10100280 <stack_pointer_switcher>)
1010025e:	600e           	bras 1010026e <schedule_next_process_neko_san+0xc8>
10100260:	52ae fffc      	addql #1,%fp@(-4)
10100264:	7004           	moveq #4,%d0
10100266:	b0ae fffc      	cmpl %fp@(-4),%d0
1010026a:	6c00 ff54      	bgew 101001c0 <schedule_next_process_neko_san+0x1a>
1010026e:	4879 1010 1b78 	pea 10101b78 <__DTOR_END__+0x58>
10100274:	4eb9 1010 0bec 	jsr 10100bec <rtx_dbug_outs>
1010027a:	588f           	addql #4,%sp
1010027c:	4e5e           	unlk %fp
1010027e:	4e75           	rts

10100280 <stack_pointer_switcher>:
10100280:	4e56 fffc      	linkw %fp,#-4
10100284:	2f0e           	movel %fp,%sp@-
10100286:	2039 1010 1cbc 	movel 10101cbc <prev_running_process>,%d0
1010028c:	4a80           	tstl %d0
1010028e:	6712           	beqs 101002a2 <stack_pointer_switcher+0x22>
10100290:	200f           	movel %sp,%d0
10100292:	2d40 fffc      	movel %d0,%fp@(-4)
10100296:	2079 1010 1cbc 	moveal 10101cbc <prev_running_process>,%a0
1010029c:	202e fffc      	movel %fp@(-4),%d0
101002a0:	2080           	movel %d0,%a0@
101002a2:	2079 1010 1cb8 	moveal 10101cb8 <__bss_start>,%a0
101002a8:	2010           	movel %a0@,%d0
101002aa:	2d40 fffc      	movel %d0,%fp@(-4)
101002ae:	202e fffc      	movel %fp@(-4),%d0
101002b2:	2e40           	moveal %d0,%sp
101002b4:	2079 1010 1cb8 	moveal 10101cb8 <__bss_start>,%a0
101002ba:	2028 000c      	movel %a0@(12),%d0
101002be:	7203           	moveq #3,%d1
101002c0:	b280           	cmpl %d0,%d1
101002c2:	660e           	bnes 101002d2 <stack_pointer_switcher+0x52>
101002c4:	2079 1010 1cb8 	moveal 10101cb8 <__bss_start>,%a0
101002ca:	7002           	moveq #2,%d0
101002cc:	2140 000c      	movel %d0,%a0@(12)
101002d0:	4e73           	rte
101002d2:	2079 1010 1cb8 	moveal 10101cb8 <__bss_start>,%a0
101002d8:	7202           	moveq #2,%d1
101002da:	2141 000c      	movel %d1,%a0@(12)
101002de:	2c5f           	moveal %sp@+,%fp
101002e0:	4e5e           	unlk %fp
101002e2:	4e75           	rts

101002e4 <trap_call_animal>:
101002e4:	4e56 ffec      	linkw %fp,#-20
101002e8:	46fc 2700      	movew #9984,%sr
101002ec:	2000           	movel %d0,%d0
101002ee:	2d40 ffec      	movel %d0,%fp@(-20)
101002f2:	4aae ffec      	tstl %fp@(-20)
101002f6:	6608           	bnes 10100300 <trap_call_animal+0x1c>
101002f8:	4eba feac      	jsr %pc@(101001a6 <schedule_next_process_neko_san>)
101002fc:	6000 016e      	braw 1010046c <trap_call_animal+0x188>
10100300:	7001           	moveq #1,%d0
10100302:	b0ae ffec      	cmpl %fp@(-20),%d0
10100306:	6608           	bnes 10100310 <trap_call_animal+0x2c>
10100308:	4eba fe5a      	jsr %pc@(10100164 <release_processor_kuma_san>)
1010030c:	6000 015e      	braw 1010046c <trap_call_animal+0x188>
10100310:	7004           	moveq #4,%d0
10100312:	b0ae ffec      	cmpl %fp@(-20),%d0
10100316:	6626           	bnes 1010033e <trap_call_animal+0x5a>
10100318:	202f 0060      	movel %sp@(96),%d0
1010031c:	2d40 fff0      	movel %d0,%fp@(-16)
10100320:	202e fff0      	movel %fp@(-16),%d0
10100324:	2f00           	movel %d0,%sp@-
10100326:	4eb9 1010 09fa 	jsr 101009fa <s_release_memory_block_yishi>
1010032c:	588f           	addql #4,%sp
1010032e:	2d40 fffc      	movel %d0,%fp@(-4)
10100332:	202e fffc      	movel %fp@(-4),%d0
10100336:	2f40 0060      	movel %d0,%sp@(96)
1010033a:	6000 0130      	braw 1010046c <trap_call_animal+0x188>
1010033e:	7005           	moveq #5,%d0
10100340:	b0ae ffec      	cmpl %fp@(-20),%d0
10100344:	661e           	bnes 10100364 <trap_call_animal+0x80>
10100346:	202f 0060      	movel %sp@(96),%d0
1010034a:	2d40 fff0      	movel %d0,%fp@(-16)
1010034e:	4eb9 1010 0978 	jsr 10100978 <s_request_memory_block_yishi>
10100354:	2d40 fffc      	movel %d0,%fp@(-4)
10100358:	202e fffc      	movel %fp@(-4),%d0
1010035c:	2f40 0060      	movel %d0,%sp@(96)
10100360:	6000 010a      	braw 1010046c <trap_call_animal+0x188>
10100364:	7002           	moveq #2,%d0
10100366:	b0ae ffec      	cmpl %fp@(-20),%d0
1010036a:	6632           	bnes 1010039e <trap_call_animal+0xba>
1010036c:	202f 0060      	movel %sp@(96),%d0
10100370:	2d40 fff4      	movel %d0,%fp@(-12)
10100374:	202f 0064      	movel %sp@(100),%d0
10100378:	2d40 fff0      	movel %d0,%fp@(-16)
1010037c:	202e fff4      	movel %fp@(-12),%d0
10100380:	2f00           	movel %d0,%sp@-
10100382:	2f2e fff0      	movel %fp@(-16),%sp@-
10100386:	4eb9 1010 1262 	jsr 10101262 <send_message_jessie>
1010038c:	508f           	addql #8,%sp
1010038e:	2d40 fffc      	movel %d0,%fp@(-4)
10100392:	202e fffc      	movel %fp@(-4),%d0
10100396:	2f40 0060      	movel %d0,%sp@(96)
1010039a:	6000 00d0      	braw 1010046c <trap_call_animal+0x188>
1010039e:	7003           	moveq #3,%d0
101003a0:	b0ae ffec      	cmpl %fp@(-20),%d0
101003a4:	6624           	bnes 101003ca <trap_call_animal+0xe6>
101003a6:	202f 0060      	movel %sp@(96),%d0
101003aa:	2d40 fff0      	movel %d0,%fp@(-16)
101003ae:	2f2e fff0      	movel %fp@(-16),%sp@-
101003b2:	4eb9 1010 1388 	jsr 10101388 <receive_message_jessie>
101003b8:	588f           	addql #4,%sp
101003ba:	2d40 fffc      	movel %d0,%fp@(-4)
101003be:	202e fffc      	movel %fp@(-4),%d0
101003c2:	2f40 0060      	movel %d0,%sp@(96)
101003c6:	6000 00a4      	braw 1010046c <trap_call_animal+0x188>
101003ca:	7006           	moveq #6,%d0
101003cc:	b0ae ffec      	cmpl %fp@(-20),%d0
101003d0:	6640           	bnes 10100412 <trap_call_animal+0x12e>
101003d2:	202f 0060      	movel %sp@(96),%d0
101003d6:	2d40 fff8      	movel %d0,%fp@(-8)
101003da:	202f 0064      	movel %sp@(100),%d0
101003de:	2d40 fff4      	movel %d0,%fp@(-12)
101003e2:	202f 0068      	movel %sp@(104),%d0
101003e6:	2d40 fff0      	movel %d0,%fp@(-16)
101003ea:	202e fff4      	movel %fp@(-12),%d0
101003ee:	2f2e fff8      	movel %fp@(-8),%sp@-
101003f2:	2f00           	movel %d0,%sp@-
101003f4:	2f2e fff0      	movel %fp@(-16),%sp@-
101003f8:	4eb9 1010 14ea 	jsr 101014ea <delayed_send_umi_san>
101003fe:	dffc 0000 000c 	addal #12,%sp
10100404:	2d40 fffc      	movel %d0,%fp@(-4)
10100408:	202e fffc      	movel %fp@(-4),%d0
1010040c:	2f40 0060      	movel %d0,%sp@(96)
10100410:	605a           	bras 1010046c <trap_call_animal+0x188>
10100412:	7007           	moveq #7,%d0
10100414:	b0ae ffec      	cmpl %fp@(-20),%d0
10100418:	6620           	bnes 1010043a <trap_call_animal+0x156>
1010041a:	202f 0060      	movel %sp@(96),%d0
1010041e:	2d40 fff0      	movel %d0,%fp@(-16)
10100422:	2f2e fff0      	movel %fp@(-16),%sp@-
10100426:	4eba 0102      	jsr %pc@(1010052a <get_process_priority_usagi_san>)
1010042a:	588f           	addql #4,%sp
1010042c:	2d40 fffc      	movel %d0,%fp@(-4)
10100430:	202e fffc      	movel %fp@(-4),%d0
10100434:	2f40 0060      	movel %d0,%sp@(96)
10100438:	6032           	bras 1010046c <trap_call_animal+0x188>
1010043a:	7008           	moveq #8,%d0
1010043c:	b0ae ffec      	cmpl %fp@(-20),%d0
10100440:	662a           	bnes 1010046c <trap_call_animal+0x188>
10100442:	202f 0060      	movel %sp@(96),%d0
10100446:	2d40 fff4      	movel %d0,%fp@(-12)
1010044a:	202f 0064      	movel %sp@(100),%d0
1010044e:	2d40 fff0      	movel %d0,%fp@(-16)
10100452:	2f2e fff4      	movel %fp@(-12),%sp@-
10100456:	2f2e fff0      	movel %fp@(-16),%sp@-
1010045a:	4eba 00fe      	jsr %pc@(1010055a <set_process_priority_yama_san>)
1010045e:	508f           	addql #8,%sp
10100460:	2d40 fffc      	movel %d0,%fp@(-4)
10100464:	202e fffc      	movel %fp@(-4),%d0
10100468:	2f40 0060      	movel %d0,%sp@(96)
1010046c:	4e5e           	unlk %fp
1010046e:	4e75           	rts

10100470 <get_process_from_ID>:
10100470:	4e56 fff8      	linkw %fp,#-8
10100474:	42ae fffc      	clrl %fp@(-4)
10100478:	603e           	bras 101004b8 <get_process_from_ID+0x48>
1010047a:	202e fffc      	movel %fp@(-4),%d0
1010047e:	2200           	movel %d0,%d1
10100480:	e589           	lsll #2,%d1
10100482:	2001           	movel %d1,%d0
10100484:	e788           	lsll #3,%d0
10100486:	9081           	subl %d1,%d0
10100488:	41f9 1010 2d28 	lea 10102d28 <p+0x8>,%a0
1010048e:	2030 0800      	movel %a0@(00000000,%d0:l),%d0
10100492:	b0ae 0008      	cmpl %fp@(8),%d0
10100496:	661c           	bnes 101004b4 <get_process_from_ID+0x44>
10100498:	202e fffc      	movel %fp@(-4),%d0
1010049c:	2200           	movel %d0,%d1
1010049e:	e589           	lsll #2,%d1
101004a0:	2001           	movel %d1,%d0
101004a2:	e788           	lsll #3,%d0
101004a4:	9081           	subl %d1,%d0
101004a6:	2200           	movel %d0,%d1
101004a8:	0681 1010 2d20 	addil #269495584,%d1
101004ae:	2d41 fff8      	movel %d1,%fp@(-8)
101004b2:	6010           	bras 101004c4 <get_process_from_ID+0x54>
101004b4:	52ae fffc      	addql #1,%fp@(-4)
101004b8:	7006           	moveq #6,%d0
101004ba:	b0ae fffc      	cmpl %fp@(-4),%d0
101004be:	6cba           	bges 1010047a <get_process_from_ID+0xa>
101004c0:	42ae fff8      	clrl %fp@(-8)
101004c4:	202e fff8      	movel %fp@(-8),%d0
101004c8:	4e5e           	unlk %fp
101004ca:	4e75           	rts

101004cc <get_process_number_from_ID>:
101004cc:	4e56 fff8      	linkw %fp,#-8
101004d0:	42ae fffc      	clrl %fp@(-4)
101004d4:	602c           	bras 10100502 <get_process_number_from_ID+0x36>
101004d6:	202e fffc      	movel %fp@(-4),%d0
101004da:	2200           	movel %d0,%d1
101004dc:	e589           	lsll #2,%d1
101004de:	2001           	movel %d1,%d0
101004e0:	e788           	lsll #3,%d0
101004e2:	9081           	subl %d1,%d0
101004e4:	41f9 1010 2d28 	lea 10102d28 <p+0x8>,%a0
101004ea:	2030 0800      	movel %a0@(00000000,%d0:l),%d0
101004ee:	b0ae 0008      	cmpl %fp@(8),%d0
101004f2:	660a           	bnes 101004fe <get_process_number_from_ID+0x32>
101004f4:	202e fffc      	movel %fp@(-4),%d0
101004f8:	2d40 fff8      	movel %d0,%fp@(-8)
101004fc:	6012           	bras 10100510 <get_process_number_from_ID+0x44>
101004fe:	52ae fffc      	addql #1,%fp@(-4)
10100502:	7006           	moveq #6,%d0
10100504:	b0ae fffc      	cmpl %fp@(-4),%d0
10100508:	6ccc           	bges 101004d6 <get_process_number_from_ID+0xa>
1010050a:	70ff           	moveq #-1,%d0
1010050c:	2d40 fff8      	movel %d0,%fp@(-8)
10100510:	202e fff8      	movel %fp@(-8),%d0
10100514:	4e5e           	unlk %fp
10100516:	4e75           	rts

10100518 <get_process_ID>:
10100518:	4e56 0000      	linkw %fp,#0
1010051c:	2079 1010 1cb8 	moveal 10101cb8 <__bss_start>,%a0
10100522:	2028 0008      	movel %a0@(8),%d0
10100526:	4e5e           	unlk %fp
10100528:	4e75           	rts

1010052a <get_process_priority_usagi_san>:
1010052a:	4e56 fff8      	linkw %fp,#-8
1010052e:	2f2e 0008      	movel %fp@(8),%sp@-
10100532:	4eba ff3c      	jsr %pc@(10100470 <get_process_from_ID>)
10100536:	588f           	addql #4,%sp
10100538:	2d40 fffc      	movel %d0,%fp@(-4)
1010053c:	4aae fffc      	tstl %fp@(-4)
10100540:	6714           	beqs 10100556 <get_process_priority_usagi_san+0x2c>
10100542:	206e fffc      	moveal %fp@(-4),%a0
10100546:	2028 0010      	movel %a0@(16),%d0
1010054a:	2d40 fff8      	movel %d0,%fp@(-8)
1010054e:	202e fff8      	movel %fp@(-8),%d0
10100552:	6000 0002      	braw 10100556 <get_process_priority_usagi_san+0x2c>
10100556:	4e5e           	unlk %fp
10100558:	4e75           	rts

1010055a <set_process_priority_yama_san>:
1010055a:	4e56 fff8      	linkw %fp,#-8
1010055e:	2f2e 0008      	movel %fp@(8),%sp@-
10100562:	4eba ff0c      	jsr %pc@(10100470 <get_process_from_ID>)
10100566:	588f           	addql #4,%sp
10100568:	2d40 fffc      	movel %d0,%fp@(-4)
1010056c:	4aae fffc      	tstl %fp@(-4)
10100570:	6608           	bnes 1010057a <set_process_priority_yama_san+0x20>
10100572:	7001           	moveq #1,%d0
10100574:	2d40 fff8      	movel %d0,%fp@(-8)
10100578:	6052           	bras 101005cc <set_process_priority_yama_san+0x72>
1010057a:	7003           	moveq #3,%d0
1010057c:	b0ae 000c      	cmpl %fp@(12),%d0
10100580:	6d06           	blts 10100588 <set_process_priority_yama_san+0x2e>
10100582:	4aae 000c      	tstl %fp@(12)
10100586:	6c08           	bges 10100590 <set_process_priority_yama_san+0x36>
10100588:	7001           	moveq #1,%d0
1010058a:	2d40 fff8      	movel %d0,%fp@(-8)
1010058e:	603c           	bras 101005cc <set_process_priority_yama_san+0x72>
10100590:	206e fffc      	moveal %fp@(-4),%a0
10100594:	2028 000c      	movel %a0@(12),%d0
10100598:	4a80           	tstl %d0
1010059a:	6622           	bnes 101005be <set_process_priority_yama_san+0x64>
1010059c:	2f2e fffc      	movel %fp@(-4),%sp@-
101005a0:	4eb9 1010 07ba 	jsr 101007ba <remove_from_ready>
101005a6:	588f           	addql #4,%sp
101005a8:	206e fffc      	moveal %fp@(-4),%a0
101005ac:	216e 000c 0010 	movel %fp@(12),%a0@(16)
101005b2:	2f2e fffc      	movel %fp@(-4),%sp@-
101005b6:	4eb9 1010 068c 	jsr 1010068c <put_to_ready>
101005bc:	588f           	addql #4,%sp
101005be:	206e fffc      	moveal %fp@(-4),%a0
101005c2:	216e 000c 0010 	movel %fp@(12),%a0@(16)
101005c8:	42ae fff8      	clrl %fp@(-8)
101005cc:	202e fff8      	movel %fp@(-8),%d0
101005d0:	4e5e           	unlk %fp
101005d2:	4e75           	rts

101005d4 <process_exists>:
101005d4:	4e56 fff8      	linkw %fp,#-8
101005d8:	42ae fffc      	clrl %fp@(-4)
101005dc:	602a           	bras 10100608 <process_exists+0x34>
101005de:	202e fffc      	movel %fp@(-4),%d0
101005e2:	2200           	movel %d0,%d1
101005e4:	e589           	lsll #2,%d1
101005e6:	2001           	movel %d1,%d0
101005e8:	e788           	lsll #3,%d0
101005ea:	9081           	subl %d1,%d0
101005ec:	41f9 1010 2d28 	lea 10102d28 <p+0x8>,%a0
101005f2:	2030 0800      	movel %a0@(00000000,%d0:l),%d0
101005f6:	b0ae 0008      	cmpl %fp@(8),%d0
101005fa:	6608           	bnes 10100604 <process_exists+0x30>
101005fc:	7001           	moveq #1,%d0
101005fe:	2d40 fff8      	movel %d0,%fp@(-8)
10100602:	6010           	bras 10100614 <process_exists+0x40>
10100604:	52ae fffc      	addql #1,%fp@(-4)
10100608:	7006           	moveq #6,%d0
1010060a:	b0ae fffc      	cmpl %fp@(-4),%d0
1010060e:	6cce           	bges 101005de <process_exists+0xa>
10100610:	42ae fff8      	clrl %fp@(-8)
10100614:	202e fff8      	movel %fp@(-8),%d0
10100618:	4e5e           	unlk %fp
1010061a:	4e75           	rts

1010061c <is_waiting_for>:
1010061c:	4e56 fffc      	linkw %fp,#-4
10100620:	2f2e 0008      	movel %fp@(8),%sp@-
10100624:	4eba ffae      	jsr %pc@(101005d4 <process_exists>)
10100628:	588f           	addql #4,%sp
1010062a:	4a80           	tstl %d0
1010062c:	672a           	beqs 10100658 <is_waiting_for+0x3c>
1010062e:	2f2e 0008      	movel %fp@(8),%sp@-
10100632:	4eba fe3c      	jsr %pc@(10100470 <get_process_from_ID>)
10100636:	588f           	addql #4,%sp
10100638:	2040           	moveal %d0,%a0
1010063a:	2028 0018      	movel %a0@(24),%d0
1010063e:	b0ae 000c      	cmpl %fp@(12),%d0
10100642:	57c0           	seq %d0
10100644:	1200           	moveb %d0,%d1
10100646:	49c1           	extbl %d1
10100648:	2d41 fffc      	movel %d1,%fp@(-4)
1010064c:	202e fffc      	movel %fp@(-4),%d0
10100650:	4480           	negl %d0
10100652:	2d40 fffc      	movel %d0,%fp@(-4)
10100656:	6004           	bras 1010065c <is_waiting_for+0x40>
10100658:	42ae fffc      	clrl %fp@(-4)
1010065c:	202e fffc      	movel %fp@(-4),%d0
10100660:	4e5e           	unlk %fp
10100662:	4e75           	rts

10100664 <set_process_state>:
10100664:	4e56 fffc      	linkw %fp,#-4
10100668:	2f2e 0008      	movel %fp@(8),%sp@-
1010066c:	4eba fe02      	jsr %pc@(10100470 <get_process_from_ID>)
10100670:	588f           	addql #4,%sp
10100672:	2d40 fffc      	movel %d0,%fp@(-4)
10100676:	4aae fffc      	tstl %fp@(-4)
1010067a:	670a           	beqs 10100686 <set_process_state+0x22>
1010067c:	206e fffc      	moveal %fp@(-4),%a0
10100680:	216e 000c 000c 	movel %fp@(12),%a0@(12)
10100686:	4e5e           	unlk %fp
10100688:	4e75           	rts
	...

1010068c <put_to_ready>:
1010068c:	4e56 fff8      	linkw %fp,#-8
10100690:	70ff           	moveq #-1,%d0
10100692:	2d40 fff8      	movel %d0,%fp@(-8)
10100696:	42ae fffc      	clrl %fp@(-4)
1010069a:	206e 0008      	moveal %fp@(8),%a0
1010069e:	2d68 0010 fff8 	movel %a0@(16),%fp@(-8)
101006a4:	202e fff8      	movel %fp@(-8),%d0
101006a8:	e588           	lsll #2,%d0
101006aa:	41f9 1010 2dec 	lea 10102dec <ready_queue>,%a0
101006b0:	43f0 0800      	lea %a0@(00000000,%d0:l),%a1
101006b4:	2d51 fffc      	movel %a1@,%fp@(-4)
101006b8:	206e 0008      	moveal %fp@(8),%a0
101006bc:	42a8 000c      	clrl %a0@(12)
101006c0:	4aae fffc      	tstl %fp@(-4)
101006c4:	6632           	bnes 101006f8 <put_to_ready+0x6c>
101006c6:	202e fff8      	movel %fp@(-8),%d0
101006ca:	e588           	lsll #2,%d0
101006cc:	41f9 1010 2dec 	lea 10102dec <ready_queue>,%a0
101006d2:	43ee 0008      	lea %fp@(8),%a1
101006d6:	2191 0800      	movel %a1@,%a0@(00000000,%d0:l)
101006da:	206e 0008      	moveal %fp@(8),%a0
101006de:	42a8 0004      	clrl %a0@(4)
101006e2:	6038           	bras 1010071c <put_to_ready+0x90>
101006e4:	202e 0008      	movel %fp@(8),%d0
101006e8:	b0ae fffc      	cmpl %fp@(-4),%d0
101006ec:	672e           	beqs 1010071c <put_to_ready+0x90>
101006ee:	206e fffc      	moveal %fp@(-4),%a0
101006f2:	2d68 0004 fffc 	movel %a0@(4),%fp@(-4)
101006f8:	4aae fffc      	tstl %fp@(-4)
101006fc:	670c           	beqs 1010070a <put_to_ready+0x7e>
101006fe:	206e fffc      	moveal %fp@(-4),%a0
10100702:	2028 0004      	movel %a0@(4),%d0
10100706:	4a80           	tstl %d0
10100708:	66da           	bnes 101006e4 <put_to_ready+0x58>
1010070a:	206e fffc      	moveal %fp@(-4),%a0
1010070e:	216e 0008 0004 	movel %fp@(8),%a0@(4)
10100714:	206e 0008      	moveal %fp@(8),%a0
10100718:	42a8 0004      	clrl %a0@(4)
1010071c:	4e5e           	unlk %fp
1010071e:	4e75           	rts

10100720 <put_to_blocked>:
10100720:	4e56 fff8      	linkw %fp,#-8
10100724:	4aae 0008      	tstl %fp@(8)
10100728:	6d00 008c      	bltw 101007b6 <put_to_blocked+0x96>
1010072c:	206e 000c      	moveal %fp@(12),%a0
10100730:	216e 0008 0018 	movel %fp@(8),%a0@(24)
10100736:	206e 000c      	moveal %fp@(12),%a0
1010073a:	7001           	moveq #1,%d0
1010073c:	2140 000c      	movel %d0,%a0@(12)
10100740:	70ff           	moveq #-1,%d0
10100742:	2d40 fff8      	movel %d0,%fp@(-8)
10100746:	42ae fffc      	clrl %fp@(-4)
1010074a:	206e 000c      	moveal %fp@(12),%a0
1010074e:	42a8 0004      	clrl %a0@(4)
10100752:	206e 000c      	moveal %fp@(12),%a0
10100756:	2d68 0010 fff8 	movel %a0@(16),%fp@(-8)
1010075c:	202e 0008      	movel %fp@(8),%d0
10100760:	e588           	lsll #2,%d0
10100762:	41f9 1010 2de4 	lea 10102de4 <blocked_queue>,%a0
10100768:	43f0 0800      	lea %a0@(00000000,%d0:l),%a1
1010076c:	2d51 fffc      	movel %a1@,%fp@(-4)
10100770:	4aae fffc      	tstl %fp@(-4)
10100774:	662a           	bnes 101007a0 <put_to_blocked+0x80>
10100776:	202e 0008      	movel %fp@(8),%d0
1010077a:	e588           	lsll #2,%d0
1010077c:	41f9 1010 2de4 	lea 10102de4 <blocked_queue>,%a0
10100782:	43ee 000c      	lea %fp@(12),%a1
10100786:	2191 0800      	movel %a1@,%a0@(00000000,%d0:l)
1010078a:	602a           	bras 101007b6 <put_to_blocked+0x96>
1010078c:	202e 000c      	movel %fp@(12),%d0
10100790:	b0ae fffc      	cmpl %fp@(-4),%d0
10100794:	6720           	beqs 101007b6 <put_to_blocked+0x96>
10100796:	206e fffc      	moveal %fp@(-4),%a0
1010079a:	2d68 0004 fffc 	movel %a0@(4),%fp@(-4)
101007a0:	206e fffc      	moveal %fp@(-4),%a0
101007a4:	2028 0004      	movel %a0@(4),%d0
101007a8:	4a80           	tstl %d0
101007aa:	66e0           	bnes 1010078c <put_to_blocked+0x6c>
101007ac:	206e fffc      	moveal %fp@(-4),%a0
101007b0:	216e 000c 0004 	movel %fp@(12),%a0@(4)
101007b6:	4e5e           	unlk %fp
101007b8:	4e75           	rts

101007ba <remove_from_ready>:
101007ba:	4e56 fffc      	linkw %fp,#-4
101007be:	206e 0008      	moveal %fp@(8),%a0
101007c2:	2028 0010      	movel %a0@(16),%d0
101007c6:	e588           	lsll #2,%d0
101007c8:	41f9 1010 2dec 	lea 10102dec <ready_queue>,%a0
101007ce:	2030 0800      	movel %a0@(00000000,%d0:l),%d0
101007d2:	b0ae 0008      	cmpl %fp@(8),%d0
101007d6:	661e           	bnes 101007f6 <remove_from_ready+0x3c>
101007d8:	206e 0008      	moveal %fp@(8),%a0
101007dc:	2028 0010      	movel %a0@(16),%d0
101007e0:	206e 0008      	moveal %fp@(8),%a0
101007e4:	2228 0004      	movel %a0@(4),%d1
101007e8:	e588           	lsll #2,%d0
101007ea:	41f9 1010 2dec 	lea 10102dec <ready_queue>,%a0
101007f0:	2181 0800      	movel %d1,%a0@(00000000,%d0:l)
101007f4:	6050           	bras 10100846 <remove_from_ready+0x8c>
101007f6:	206e 0008      	moveal %fp@(8),%a0
101007fa:	2028 0010      	movel %a0@(16),%d0
101007fe:	e588           	lsll #2,%d0
10100800:	41f9 1010 2dec 	lea 10102dec <ready_queue>,%a0
10100806:	43f0 0800      	lea %a0@(00000000,%d0:l),%a1
1010080a:	2d51 fffc      	movel %a1@,%fp@(-4)
1010080e:	602a           	bras 1010083a <remove_from_ready+0x80>
10100810:	206e fffc      	moveal %fp@(-4),%a0
10100814:	2028 0004      	movel %a0@(4),%d0
10100818:	b0ae 0008      	cmpl %fp@(8),%d0
1010081c:	6612           	bnes 10100830 <remove_from_ready+0x76>
1010081e:	206e 0008      	moveal %fp@(8),%a0
10100822:	2028 0004      	movel %a0@(4),%d0
10100826:	206e fffc      	moveal %fp@(-4),%a0
1010082a:	2140 0004      	movel %d0,%a0@(4)
1010082e:	6016           	bras 10100846 <remove_from_ready+0x8c>
10100830:	206e fffc      	moveal %fp@(-4),%a0
10100834:	2d68 0004 fffc 	movel %a0@(4),%fp@(-4)
1010083a:	206e fffc      	moveal %fp@(-4),%a0
1010083e:	2028 0004      	movel %a0@(4),%d0
10100842:	4a80           	tstl %d0
10100844:	66ca           	bnes 10100810 <remove_from_ready+0x56>
10100846:	4e5e           	unlk %fp
10100848:	4e75           	rts

1010084a <remove_from_blocked>:
1010084a:	4e56 fff8      	linkw %fp,#-8
1010084e:	4aae 0008      	tstl %fp@(8)
10100852:	6d00 00a6      	bltw 101008fa <remove_from_blocked+0xb0>
10100856:	42ae fff8      	clrl %fp@(-8)
1010085a:	206e 000c      	moveal %fp@(12),%a0
1010085e:	42a8 000c      	clrl %a0@(12)
10100862:	206e 000c      	moveal %fp@(12),%a0
10100866:	70ff           	moveq #-1,%d0
10100868:	2140 0018      	movel %d0,%a0@(24)
1010086c:	202e 0008      	movel %fp@(8),%d0
10100870:	e588           	lsll #2,%d0
10100872:	41f9 1010 2de4 	lea 10102de4 <blocked_queue>,%a0
10100878:	2030 0800      	movel %a0@(00000000,%d0:l),%d0
1010087c:	b0ae 000c      	cmpl %fp@(12),%d0
10100880:	661a           	bnes 1010089c <remove_from_blocked+0x52>
10100882:	202e 0008      	movel %fp@(8),%d0
10100886:	206e 000c      	moveal %fp@(12),%a0
1010088a:	2228 0004      	movel %a0@(4),%d1
1010088e:	e588           	lsll #2,%d0
10100890:	41f9 1010 2de4 	lea 10102de4 <blocked_queue>,%a0
10100896:	2181 0800      	movel %d1,%a0@(00000000,%d0:l)
1010089a:	604c           	bras 101008e8 <remove_from_blocked+0x9e>
1010089c:	202e 0008      	movel %fp@(8),%d0
101008a0:	e588           	lsll #2,%d0
101008a2:	41f9 1010 2de4 	lea 10102de4 <blocked_queue>,%a0
101008a8:	43f0 0800      	lea %a0@(00000000,%d0:l),%a1
101008ac:	2d51 fffc      	movel %a1@,%fp@(-4)
101008b0:	602a           	bras 101008dc <remove_from_blocked+0x92>
101008b2:	206e fffc      	moveal %fp@(-4),%a0
101008b6:	2028 0004      	movel %a0@(4),%d0
101008ba:	b0ae 000c      	cmpl %fp@(12),%d0
101008be:	6612           	bnes 101008d2 <remove_from_blocked+0x88>
101008c0:	206e 000c      	moveal %fp@(12),%a0
101008c4:	2028 0004      	movel %a0@(4),%d0
101008c8:	206e fffc      	moveal %fp@(-4),%a0
101008cc:	2140 0004      	movel %d0,%a0@(4)
101008d0:	6016           	bras 101008e8 <remove_from_blocked+0x9e>
101008d2:	206e fffc      	moveal %fp@(-4),%a0
101008d6:	2d68 0004 fffc 	movel %a0@(4),%fp@(-4)
101008dc:	206e fffc      	moveal %fp@(-4),%a0
101008e0:	2028 0004      	movel %a0@(4),%d0
101008e4:	4a80           	tstl %d0
101008e6:	66ca           	bnes 101008b2 <remove_from_blocked+0x68>
101008e8:	206e 000c      	moveal %fp@(12),%a0
101008ec:	42a8 0004      	clrl %a0@(4)
101008f0:	2f2e 000c      	movel %fp@(12),%sp@-
101008f4:	4eba fd96      	jsr %pc@(1010068c <put_to_ready>)
101008f8:	588f           	addql #4,%sp
101008fa:	4e5e           	unlk %fp
101008fc:	4e75           	rts

101008fe <remove_first_from_blocked>:
101008fe:	4e56 fffc      	linkw %fp,#-4
10100902:	4879 1010 1ba2 	pea 10101ba2 <__DTOR_END__+0x82>
10100908:	4eb9 1010 0bec 	jsr 10100bec <rtx_dbug_outs>
1010090e:	588f           	addql #4,%sp
10100910:	202e 0008      	movel %fp@(8),%d0
10100914:	e588           	lsll #2,%d0
10100916:	41f9 1010 2de4 	lea 10102de4 <blocked_queue>,%a0
1010091c:	2030 0800      	movel %a0@(00000000,%d0:l),%d0
10100920:	4a80           	tstl %d0
10100922:	6750           	beqs 10100974 <remove_first_from_blocked+0x76>
10100924:	202e 0008      	movel %fp@(8),%d0
10100928:	e588           	lsll #2,%d0
1010092a:	41f9 1010 2de4 	lea 10102de4 <blocked_queue>,%a0
10100930:	43f0 0800      	lea %a0@(00000000,%d0:l),%a1
10100934:	2d51 fffc      	movel %a1@,%fp@(-4)
10100938:	202e 0008      	movel %fp@(8),%d0
1010093c:	206e fffc      	moveal %fp@(-4),%a0
10100940:	2228 0004      	movel %a0@(4),%d1
10100944:	e588           	lsll #2,%d0
10100946:	41f9 1010 2de4 	lea 10102de4 <blocked_queue>,%a0
1010094c:	2181 0800      	movel %d1,%a0@(00000000,%d0:l)
10100950:	206e fffc      	moveal %fp@(-4),%a0
10100954:	42a8 0004      	clrl %a0@(4)
10100958:	206e fffc      	moveal %fp@(-4),%a0
1010095c:	42a8 000c      	clrl %a0@(12)
10100960:	206e fffc      	moveal %fp@(-4),%a0
10100964:	70ff           	moveq #-1,%d0
10100966:	2140 0018      	movel %d0,%a0@(24)
1010096a:	2f2e fffc      	movel %fp@(-4),%sp@-
1010096e:	4eba fd1c      	jsr %pc@(1010068c <put_to_ready>)
10100972:	588f           	addql #4,%sp
10100974:	4e5e           	unlk %fp
10100976:	4e75           	rts

10100978 <s_request_memory_block_yishi>:
10100978:	4e56 fffc      	linkw %fp,#-4
1010097c:	2079 1010 2ce0 	moveal 10102ce0 <free_blocks>,%a0
10100982:	2010           	movel %a0@,%d0
10100984:	4a80           	tstl %d0
10100986:	662a           	bnes 101009b2 <s_request_memory_block_yishi+0x3a>
10100988:	2039 1010 1cb8 	movel 10101cb8 <__bss_start>,%d0
1010098e:	2f00           	movel %d0,%sp@-
10100990:	4878 0001      	pea 1 <__DYNAMIC+0x1>
10100994:	4eb9 1010 0720 	jsr 10100720 <put_to_blocked>
1010099a:	508f           	addql #8,%sp
1010099c:	4879 1010 1bc8 	pea 10101bc8 <FAILURE+0x1>
101009a2:	4eb9 1010 0bec 	jsr 10100bec <rtx_dbug_outs>
101009a8:	588f           	addql #4,%sp
101009aa:	4eb9 1010 0164 	jsr 10100164 <release_processor_kuma_san>
101009b0:	60ca           	bras 1010097c <s_request_memory_block_yishi+0x4>
101009b2:	41f9 1010 2ce0 	lea 10102ce0 <free_blocks>,%a0
101009b8:	2d50 fffc      	movel %a0@,%fp@(-4)
101009bc:	206e fffc      	moveal %fp@(-4),%a0
101009c0:	5088           	addql #8,%a0
101009c2:	1039 1010 1bc4 	moveb 10101bc4 <USED>,%d0
101009c8:	1000           	moveb %d0,%d0
101009ca:	0280 0000 00ff 	andil #255,%d0
101009d0:	2080           	movel %d0,%a0@
101009d2:	2079 1010 2ce0 	moveal 10102ce0 <free_blocks>,%a0
101009d8:	2010           	movel %a0@,%d0
101009da:	23c0 1010 2ce0 	movel %d0,10102ce0 <free_blocks>
101009e0:	2039 1010 2ce0 	movel 10102ce0 <free_blocks>,%d0
101009e6:	2040           	moveal %d0,%a0
101009e8:	5888           	addql #4,%a0
101009ea:	4290           	clrl %a0@
101009ec:	202e fffc      	movel %fp@(-4),%d0
101009f0:	0680 0000 0014 	addil #20,%d0
101009f6:	4e5e           	unlk %fp
101009f8:	4e75           	rts

101009fa <s_release_memory_block_yishi>:
101009fa:	4e56 ffec      	linkw %fp,#-20
101009fe:	202e 0008      	movel %fp@(8),%d0
10100a02:	2200           	movel %d0,%d1
10100a04:	0681 ffff ffec 	addil #-20,%d1
10100a0a:	2d41 fff0      	movel %d1,%fp@(-16)
10100a0e:	2d6e fff0 0008 	movel %fp@(-16),%fp@(8)
10100a14:	206e 0008      	moveal %fp@(8),%a0
10100a18:	2d50 fff4      	movel %a0@,%fp@(-12)
10100a1c:	202e 0008      	movel %fp@(8),%d0
10100a20:	2040           	moveal %d0,%a0
10100a22:	5888           	addql #4,%a0
10100a24:	2d50 fff8      	movel %a0@,%fp@(-8)
10100a28:	202e 0008      	movel %fp@(8),%d0
10100a2c:	2040           	moveal %d0,%a0
10100a2e:	5088           	addql #8,%a0
10100a30:	2d50 fffc      	movel %a0@,%fp@(-4)
10100a34:	1039 1010 1bc4 	moveb 10101bc4 <USED>,%d0
10100a3a:	1000           	moveb %d0,%d0
10100a3c:	0280 0000 00ff 	andil #255,%d0
10100a42:	b0ae fffc      	cmpl %fp@(-4),%d0
10100a46:	6716           	beqs 10100a5e <s_release_memory_block_yishi+0x64>
10100a48:	1039 1010 1bc7 	moveb 10101bc7 <FAILURE>,%d0
10100a4e:	1000           	moveb %d0,%d0
10100a50:	0280 0000 00ff 	andil #255,%d0
10100a56:	2d40 ffec      	movel %d0,%fp@(-20)
10100a5a:	6000 0094      	braw 10100af0 <s_release_memory_block_yishi+0xf6>
10100a5e:	4aae fff4      	tstl %fp@(-12)
10100a62:	670c           	beqs 10100a70 <s_release_memory_block_yishi+0x76>
10100a64:	202e fff4      	movel %fp@(-12),%d0
10100a68:	5880           	addql #4,%d0
10100a6a:	2040           	moveal %d0,%a0
10100a6c:	20ae fff8      	movel %fp@(-8),%a0@
10100a70:	4aae fff8      	tstl %fp@(-8)
10100a74:	6708           	beqs 10100a7e <s_release_memory_block_yishi+0x84>
10100a76:	206e fff8      	moveal %fp@(-8),%a0
10100a7a:	20ae fff4      	movel %fp@(-12),%a0@
10100a7e:	2079 1010 2ce0 	moveal 10102ce0 <free_blocks>,%a0
10100a84:	2010           	movel %a0@,%d0
10100a86:	4a80           	tstl %d0
10100a88:	6710           	beqs 10100a9a <s_release_memory_block_yishi+0xa0>
10100a8a:	2039 1010 2ce0 	movel 10102ce0 <free_blocks>,%d0
10100a90:	2040           	moveal %d0,%a0
10100a92:	5888           	addql #4,%a0
10100a94:	202e 0008      	movel %fp@(8),%d0
10100a98:	2080           	movel %d0,%a0@
10100a9a:	206e 0008      	moveal %fp@(8),%a0
10100a9e:	2039 1010 2ce0 	movel 10102ce0 <free_blocks>,%d0
10100aa4:	2080           	movel %d0,%a0@
10100aa6:	202e 0008      	movel %fp@(8),%d0
10100aaa:	2040           	moveal %d0,%a0
10100aac:	5888           	addql #4,%a0
10100aae:	4290           	clrl %a0@
10100ab0:	202e 0008      	movel %fp@(8),%d0
10100ab4:	23c0 1010 2ce0 	movel %d0,10102ce0 <free_blocks>
10100aba:	202e 0008      	movel %fp@(8),%d0
10100abe:	2040           	moveal %d0,%a0
10100ac0:	5088           	addql #8,%a0
10100ac2:	1039 1010 1bc5 	moveb 10101bc5 <FREE>,%d0
10100ac8:	1000           	moveb %d0,%d0
10100aca:	0280 0000 00ff 	andil #255,%d0
10100ad0:	2080           	movel %d0,%a0@
10100ad2:	4878 0001      	pea 1 <__DYNAMIC+0x1>
10100ad6:	4eb9 1010 08fe 	jsr 101008fe <remove_first_from_blocked>
10100adc:	588f           	addql #4,%sp
10100ade:	1039 1010 1bc6 	moveb 10101bc6 <SUCCESS>,%d0
10100ae4:	1000           	moveb %d0,%d0
10100ae6:	0280 0000 00ff 	andil #255,%d0
10100aec:	2d40 ffec      	movel %d0,%fp@(-20)
10100af0:	202e ffec      	movel %fp@(-20),%d0
10100af4:	4e5e           	unlk %fp
10100af6:	4e75           	rts

10100af8 <initBlock>:
10100af8:	4e56 fff4      	linkw %fp,#-12
10100afc:	203c 1010 2e20 	movel #269495840,%d0
10100b02:	2d40 fff4      	movel %d0,%fp@(-12)
10100b06:	42ae fff8      	clrl %fp@(-8)
10100b0a:	206e fff4      	moveal %fp@(-12),%a0
10100b0e:	5888           	addql #4,%a0
10100b10:	4290           	clrl %a0@
10100b12:	206e fff4      	moveal %fp@(-12),%a0
10100b16:	5088           	addql #8,%a0
10100b18:	1039 1010 1bc5 	moveb 10101bc5 <FREE>,%d0
10100b1e:	1000           	moveb %d0,%d0
10100b20:	0280 0000 00ff 	andil #255,%d0
10100b26:	2080           	movel %d0,%a0@
10100b28:	206e fff4      	moveal %fp@(-12),%a0
10100b2c:	d1fc 0000 000c 	addal #12,%a0
10100b32:	4290           	clrl %a0@
10100b34:	206e fff4      	moveal %fp@(-12),%a0
10100b38:	d1fc 0000 0010 	addal #16,%a0
10100b3e:	4290           	clrl %a0@
10100b40:	605e           	bras 10100ba0 <initBlock+0xa8>
10100b42:	2d6e fff4 fffc 	movel %fp@(-12),%fp@(-4)
10100b48:	202e fff4      	movel %fp@(-12),%d0
10100b4c:	0680 0000 0094 	addil #148,%d0
10100b52:	206e fff4      	moveal %fp@(-12),%a0
10100b56:	2080           	movel %d0,%a0@
10100b58:	203c 0000 0094 	movel #148,%d0
10100b5e:	d1ae fff4      	addl %d0,%fp@(-12)
10100b62:	206e fff4      	moveal %fp@(-12),%a0
10100b66:	5888           	addql #4,%a0
10100b68:	202e fffc      	movel %fp@(-4),%d0
10100b6c:	2080           	movel %d0,%a0@
10100b6e:	206e fff4      	moveal %fp@(-12),%a0
10100b72:	5088           	addql #8,%a0
10100b74:	1039 1010 1bc5 	moveb 10101bc5 <FREE>,%d0
10100b7a:	1000           	moveb %d0,%d0
10100b7c:	0280 0000 00ff 	andil #255,%d0
10100b82:	2080           	movel %d0,%a0@
10100b84:	206e fff4      	moveal %fp@(-12),%a0
10100b88:	d1fc 0000 000c 	addal #12,%a0
10100b8e:	4290           	clrl %a0@
10100b90:	206e fff4      	moveal %fp@(-12),%a0
10100b94:	d1fc 0000 0010 	addal #16,%a0
10100b9a:	4290           	clrl %a0@
10100b9c:	52ae fff8      	addql #1,%fp@(-8)
10100ba0:	202e 0008      	movel %fp@(8),%d0
10100ba4:	b0ae fff8      	cmpl %fp@(-8),%d0
10100ba8:	6e98           	bgts 10100b42 <initBlock+0x4a>
10100baa:	206e fff4      	moveal %fp@(-12),%a0
10100bae:	4290           	clrl %a0@
10100bb0:	202e fff4      	movel %fp@(-12),%d0
10100bb4:	0680 0000 0094 	addil #148,%d0
10100bba:	23c0 1010 2ce4 	movel %d0,10102ce4 <mem_end>
10100bc0:	203c 1010 2e20 	movel #269495840,%d0
10100bc6:	4e5e           	unlk %fp
10100bc8:	4e75           	rts
	...

10100bcc <rtx_dbug_out_char>:
10100bcc:	4e56 fffc      	linkw %fp,#-4
10100bd0:	202e 0008      	movel %fp@(8),%d0
10100bd4:	1d40 fffe      	moveb %d0,%fp@(-2)
10100bd8:	2f00           	movel %d0,%sp@-
10100bda:	2f01           	movel %d1,%sp@-
10100bdc:	222e 0008      	movel %fp@(8),%d1
10100be0:	7013           	moveq #19,%d0
10100be2:	4e4f           	trap #15
10100be4:	221f           	movel %sp@+,%d1
10100be6:	201f           	movel %sp@+,%d0
10100be8:	4e5e           	unlk %fp
10100bea:	4e75           	rts

10100bec <rtx_dbug_outs>:
10100bec:	4e56 fffc      	linkw %fp,#-4
10100bf0:	4aae 0008      	tstl %fp@(8)
10100bf4:	661c           	bnes 10100c12 <rtx_dbug_outs+0x26>
10100bf6:	70ff           	moveq #-1,%d0
10100bf8:	2d40 fffc      	movel %d0,%fp@(-4)
10100bfc:	6022           	bras 10100c20 <rtx_dbug_outs+0x34>
10100bfe:	206e 0008      	moveal %fp@(8),%a0
10100c02:	1010           	moveb %a0@,%d0
10100c04:	49c0           	extbl %d0
10100c06:	52ae 0008      	addql #1,%fp@(8)
10100c0a:	2f00           	movel %d0,%sp@-
10100c0c:	4eba ffbe      	jsr %pc@(10100bcc <rtx_dbug_out_char>)
10100c10:	588f           	addql #4,%sp
10100c12:	206e 0008      	moveal %fp@(8),%a0
10100c16:	1010           	moveb %a0@,%d0
10100c18:	4a00           	tstb %d0
10100c1a:	66e2           	bnes 10100bfe <rtx_dbug_outs+0x12>
10100c1c:	42ae fffc      	clrl %fp@(-4)
10100c20:	202e fffc      	movel %fp@(-4),%d0
10100c24:	4e5e           	unlk %fp
10100c26:	4e75           	rts

10100c28 <init_kcd>:
10100c28:	4e56 fff8      	linkw %fp,#-8
10100c2c:	4879 1010 1be5 	pea 10101be5 <FAILURE+0x1e>
10100c32:	4eb9 1010 0bec 	jsr 10100bec <rtx_dbug_outs>
10100c38:	588f           	addql #4,%sp
10100c3a:	206e 0008      	moveal %fp@(8),%a0
10100c3e:	42a8 0004      	clrl %a0@(4)
10100c42:	206e 0008      	moveal %fp@(8),%a0
10100c46:	70fc           	moveq #-4,%d0
10100c48:	2140 0008      	movel %d0,%a0@(8)
10100c4c:	206e 0008      	moveal %fp@(8),%a0
10100c50:	7003           	moveq #3,%d0
10100c52:	2140 0010      	movel %d0,%a0@(16)
10100c56:	202e 000c      	movel %fp@(12),%d0
10100c5a:	206e 0008      	moveal %fp@(8),%a0
10100c5e:	2080           	movel %d0,%a0@
10100c60:	206e 0008      	moveal %fp@(8),%a0
10100c64:	42a8 0014      	clrl %a0@(20)
10100c68:	206e 0008      	moveal %fp@(8),%a0
10100c6c:	70ff           	moveq #-1,%d0
10100c6e:	2140 0018      	movel %d0,%a0@(24)
10100c72:	200f           	movel %sp,%d0
10100c74:	2d40 fffc      	movel %d0,%fp@(-4)
10100c78:	206e 0008      	moveal %fp@(8),%a0
10100c7c:	2010           	movel %a0@,%d0
10100c7e:	2d40 fff8      	movel %d0,%fp@(-8)
10100c82:	202e fff8      	movel %fp@(-8),%d0
10100c86:	2e40           	moveal %d0,%sp
10100c88:	203c 1010 0cf6 	movel #269487350,%d0
10100c8e:	2d40 fff8      	movel %d0,%fp@(-8)
10100c92:	202e fff8      	movel %fp@(-8),%d0
10100c96:	2000           	movel %d0,%d0
10100c98:	2f00           	movel %d0,%sp@-
10100c9a:	7004           	moveq #4,%d0
10100c9c:	2d40 fff8      	movel %d0,%fp@(-8)
10100ca0:	202e fff8      	movel %fp@(-8),%d0
10100ca4:	3000           	movew %d0,%d0
10100ca6:	3f00           	movew %d0,%sp@-
10100ca8:	203c 0000 4080 	movel #16512,%d0
10100cae:	2d40 fff8      	movel %d0,%fp@(-8)
10100cb2:	202e fff8      	movel %fp@(-8),%d0
10100cb6:	3000           	movew %d0,%d0
10100cb8:	3f00           	movew %d0,%sp@-
10100cba:	206e 0008      	moveal %fp@(8),%a0
10100cbe:	2010           	movel %a0@,%d0
10100cc0:	5180           	subql #8,%d0
10100cc2:	206e 0008      	moveal %fp@(8),%a0
10100cc6:	2080           	movel %d0,%a0@
10100cc8:	202e fffc      	movel %fp@(-4),%d0
10100ccc:	2e40           	moveal %d0,%sp
10100cce:	2f2e 0008      	movel %fp@(8),%sp@-
10100cd2:	4eb9 1010 068c 	jsr 1010068c <put_to_ready>
10100cd8:	588f           	addql #4,%sp
10100cda:	206e 0008      	moveal %fp@(8),%a0
10100cde:	7003           	moveq #3,%d0
10100ce0:	2140 000c      	movel %d0,%a0@(12)
10100ce4:	4879 1010 1bf1 	pea 10101bf1 <FAILURE+0x2a>
10100cea:	4eb9 1010 0bec 	jsr 10100bec <rtx_dbug_outs>
10100cf0:	588f           	addql #4,%sp
10100cf2:	4e5e           	unlk %fp
10100cf4:	4e75           	rts

10100cf6 <kcd>:
10100cf6:	4e56 ffe0      	linkw %fp,#-32
10100cfa:	41ee ffe4      	lea %fp@(-28),%a0
10100cfe:	2d48 ffe0      	movel %a0,%fp@(-32)
10100d02:	206e ffe0      	moveal %fp@(-32),%a0
10100d06:	4290           	clrl %a0@
10100d08:	58ae ffe0      	addql #4,%fp@(-32)
10100d0c:	206e ffe0      	moveal %fp@(-32),%a0
10100d10:	4290           	clrl %a0@
10100d12:	58ae ffe0      	addql #4,%fp@(-32)
10100d16:	206e ffe0      	moveal %fp@(-32),%a0
10100d1a:	4250           	clrw %a0@
10100d1c:	54ae ffe0      	addql #2,%fp@(-32)
10100d20:	7020           	moveq #32,%d0
10100d22:	1d40 ffe4      	moveb %d0,%fp@(-28)
10100d26:	42a7           	clrl %sp@-
10100d28:	4eb9 1010 152c 	jsr 1010152c <receive_message>
10100d2e:	588f           	addql #4,%sp
10100d30:	2d40 ffee      	movel %d0,%fp@(-18)
10100d34:	206e ffee      	moveal %fp@(-18),%a0
10100d38:	2d50 fff2      	movel %a0@,%fp@(-14)
10100d3c:	202e ffee      	movel %fp@(-18),%d0
10100d40:	2040           	moveal %d0,%a0
10100d42:	d1fc 0000 0190 	addal #400,%a0
10100d48:	1d50 fff7      	moveb %a0@,%fp@(-9)
10100d4c:	7201           	moveq #1,%d1
10100d4e:	b2ae fff2      	cmpl %fp@(-14),%d1
10100d52:	67d2           	beqs 10100d26 <kcd+0x30>
10100d54:	4aae fff2      	tstl %fp@(-14)
10100d58:	66cc           	bnes 10100d26 <kcd+0x30>
10100d5a:	102e fff7      	moveb %fp@(-9),%d0
10100d5e:	49c0           	extbl %d0
10100d60:	7225           	moveq #37,%d1
10100d62:	b280           	cmpl %d0,%d1
10100d64:	66c0           	bnes 10100d26 <kcd+0x30>
10100d66:	42a7           	clrl %sp@-
10100d68:	4eb9 1010 152c 	jsr 1010152c <receive_message>
10100d6e:	588f           	addql #4,%sp
10100d70:	2d40 ffee      	movel %d0,%fp@(-18)
10100d74:	206e ffee      	moveal %fp@(-18),%a0
10100d78:	2d50 fff2      	movel %a0@,%fp@(-14)
10100d7c:	202e ffee      	movel %fp@(-18),%d0
10100d80:	2040           	moveal %d0,%a0
10100d82:	d1fc 0000 0190 	addal #400,%a0
10100d88:	1d50 fff7      	moveb %a0@,%fp@(-9)
10100d8c:	4aae fff2      	tstl %fp@(-14)
10100d90:	6694           	bnes 10100d26 <kcd+0x30>
10100d92:	102e fff7      	moveb %fp@(-9),%d0
10100d96:	49c0           	extbl %d0
10100d98:	7257           	moveq #87,%d1
10100d9a:	b280           	cmpl %d0,%d1
10100d9c:	667a           	bnes 10100e18 <kcd+0x122>
10100d9e:	42a7           	clrl %sp@-
10100da0:	4eb9 1010 152c 	jsr 1010152c <receive_message>
10100da6:	588f           	addql #4,%sp
10100da8:	2d40 ffee      	movel %d0,%fp@(-18)
10100dac:	206e ffee      	moveal %fp@(-18),%a0
10100db0:	2d50 fff2      	movel %a0@,%fp@(-14)
10100db4:	202e ffee      	movel %fp@(-18),%d0
10100db8:	2040           	moveal %d0,%a0
10100dba:	d1fc 0000 0190 	addal #400,%a0
10100dc0:	1d50 fff7      	moveb %a0@,%fp@(-9)
10100dc4:	4aae fff2      	tstl %fp@(-14)
10100dc8:	6600 ff5c      	bnew 10100d26 <kcd+0x30>
10100dcc:	102e fff7      	moveb %fp@(-9),%d0
10100dd0:	49c0           	extbl %d0
10100dd2:	7253           	moveq #83,%d1
10100dd4:	b280           	cmpl %d0,%d1
10100dd6:	6608           	bnes 10100de0 <kcd+0xea>
10100dd8:	4eba 015e      	jsr %pc@(10100f38 <handle_time_string>)
10100ddc:	6000 ff48      	braw 10100d26 <kcd+0x30>
10100de0:	102e fff7      	moveb %fp@(-9),%d0
10100de4:	49c0           	extbl %d0
10100de6:	7254           	moveq #84,%d1
10100de8:	b280           	cmpl %d0,%d1
10100dea:	6600 ff3a      	bnew 10100d26 <kcd+0x30>
10100dee:	42a7           	clrl %sp@-
10100df0:	4eb9 1010 152c 	jsr 1010152c <receive_message>
10100df6:	588f           	addql #4,%sp
10100df8:	2d40 ffee      	movel %d0,%fp@(-18)
10100dfc:	206e ffee      	moveal %fp@(-18),%a0
10100e00:	2d50 fff2      	movel %a0@,%fp@(-14)
10100e04:	202e ffee      	movel %fp@(-18),%d0
10100e08:	2040           	moveal %d0,%a0
10100e0a:	d1fc 0000 0190 	addal #400,%a0
10100e10:	1d50 fff7      	moveb %a0@,%fp@(-9)
10100e14:	6000 ff10      	braw 10100d26 <kcd+0x30>
10100e18:	102e fff7      	moveb %fp@(-9),%d0
10100e1c:	49c0           	extbl %d0
10100e1e:	7243           	moveq #67,%d1
10100e20:	b280           	cmpl %d0,%d1
10100e22:	6600 ff02      	bnew 10100d26 <kcd+0x30>
10100e26:	42a7           	clrl %sp@-
10100e28:	4eb9 1010 152c 	jsr 1010152c <receive_message>
10100e2e:	588f           	addql #4,%sp
10100e30:	2d40 ffee      	movel %d0,%fp@(-18)
10100e34:	206e ffee      	moveal %fp@(-18),%a0
10100e38:	2d50 fff2      	movel %a0@,%fp@(-14)
10100e3c:	202e ffee      	movel %fp@(-18),%d0
10100e40:	2040           	moveal %d0,%a0
10100e42:	d1fc 0000 0190 	addal #400,%a0
10100e48:	1d50 fff7      	moveb %a0@,%fp@(-9)
10100e4c:	4aae fff2      	tstl %fp@(-14)
10100e50:	6600 fed4      	bnew 10100d26 <kcd+0x30>
10100e54:	102e fff7      	moveb %fp@(-9),%d0
10100e58:	49c0           	extbl %d0
10100e5a:	7220           	moveq #32,%d1
10100e5c:	b280           	cmpl %d0,%d1
10100e5e:	6700 fec6      	beqw 10100d26 <kcd+0x30>
10100e62:	42a7           	clrl %sp@-
10100e64:	4eb9 1010 152c 	jsr 1010152c <receive_message>
10100e6a:	588f           	addql #4,%sp
10100e6c:	2d40 ffee      	movel %d0,%fp@(-18)
10100e70:	206e ffee      	moveal %fp@(-18),%a0
10100e74:	2d50 fff2      	movel %a0@,%fp@(-14)
10100e78:	202e ffee      	movel %fp@(-18),%d0
10100e7c:	2040           	moveal %d0,%a0
10100e7e:	d1fc 0000 0190 	addal #400,%a0
10100e84:	2010           	movel %a0@,%d0
10100e86:	2040           	moveal %d0,%a0
10100e88:	d1fc ffff ffd0 	addal #-48,%a0
10100e8e:	2d48 fff8      	movel %a0,%fp@(-8)
10100e92:	4aae fff2      	tstl %fp@(-14)
10100e96:	6600 fe8e      	bnew 10100d26 <kcd+0x30>
10100e9a:	42a7           	clrl %sp@-
10100e9c:	4eb9 1010 152c 	jsr 1010152c <receive_message>
10100ea2:	588f           	addql #4,%sp
10100ea4:	2d40 ffee      	movel %d0,%fp@(-18)
10100ea8:	206e ffee      	moveal %fp@(-18),%a0
10100eac:	2d50 fff2      	movel %a0@,%fp@(-14)
10100eb0:	202e ffee      	movel %fp@(-18),%d0
10100eb4:	2040           	moveal %d0,%a0
10100eb6:	d1fc 0000 0190 	addal #400,%a0
10100ebc:	1d50 fff7      	moveb %a0@,%fp@(-9)
10100ec0:	4aae fff2      	tstl %fp@(-14)
10100ec4:	6600 fe60      	bnew 10100d26 <kcd+0x30>
10100ec8:	102e fff7      	moveb %fp@(-9),%d0
10100ecc:	49c0           	extbl %d0
10100ece:	7220           	moveq #32,%d1
10100ed0:	b280           	cmpl %d0,%d1
10100ed2:	6700 fe52      	beqw 10100d26 <kcd+0x30>
10100ed6:	42a7           	clrl %sp@-
10100ed8:	4eb9 1010 152c 	jsr 1010152c <receive_message>
10100ede:	588f           	addql #4,%sp
10100ee0:	2d40 ffee      	movel %d0,%fp@(-18)
10100ee4:	206e ffee      	moveal %fp@(-18),%a0
10100ee8:	2d50 fff2      	movel %a0@,%fp@(-14)
10100eec:	202e ffee      	movel %fp@(-18),%d0
10100ef0:	2040           	moveal %d0,%a0
10100ef2:	d1fc 0000 0190 	addal #400,%a0
10100ef8:	2010           	movel %a0@,%d0
10100efa:	2040           	moveal %d0,%a0
10100efc:	d1fc ffff ffd0 	addal #-48,%a0
10100f02:	2d48 fffc      	movel %a0,%fp@(-4)
10100f06:	4aae fff2      	tstl %fp@(-14)
10100f0a:	6600 fe1a      	bnew 10100d26 <kcd+0x30>
10100f0e:	42a7           	clrl %sp@-
10100f10:	4eb9 1010 152c 	jsr 1010152c <receive_message>
10100f16:	588f           	addql #4,%sp
10100f18:	2d40 ffee      	movel %d0,%fp@(-18)
10100f1c:	206e ffee      	moveal %fp@(-18),%a0
10100f20:	2d50 fff2      	movel %a0@,%fp@(-14)
10100f24:	202e ffee      	movel %fp@(-18),%d0
10100f28:	2040           	moveal %d0,%a0
10100f2a:	d1fc 0000 0190 	addal #400,%a0
10100f30:	1d50 fff7      	moveb %a0@,%fp@(-9)
10100f34:	6000 fdf0      	braw 10100d26 <kcd+0x30>

10100f38 <handle_time_string>:
10100f38:	4e56 ffc8      	linkw %fp,#-56
10100f3c:	42ae ffd2      	clrl %fp@(-46)
10100f40:	42ae ffd6      	clrl %fp@(-42)
10100f44:	42ae ffda      	clrl %fp@(-38)
10100f48:	42a7           	clrl %sp@-
10100f4a:	4eb9 1010 152c 	jsr 1010152c <receive_message>
10100f50:	588f           	addql #4,%sp
10100f52:	2d40 ffe0      	movel %d0,%fp@(-32)
10100f56:	206e ffe0      	moveal %fp@(-32),%a0
10100f5a:	2d50 ffe4      	movel %a0@,%fp@(-28)
10100f5e:	202e ffe0      	movel %fp@(-32),%d0
10100f62:	2040           	moveal %d0,%a0
10100f64:	d1fc 0000 0190 	addal #400,%a0
10100f6a:	2010           	movel %a0@,%d0
10100f6c:	2200           	movel %d0,%d1
10100f6e:	0681 ffff ffd0 	addil #-48,%d1
10100f74:	2d41 ffe8      	movel %d1,%fp@(-24)
10100f78:	4aae ffe4      	tstl %fp@(-28)
10100f7c:	660e           	bnes 10100f8c <handle_time_string+0x54>
10100f7e:	7002           	moveq #2,%d0
10100f80:	b0ae ffe8      	cmpl %fp@(-24),%d0
10100f84:	6d06           	blts 10100f8c <handle_time_string+0x54>
10100f86:	4aae ffe8      	tstl %fp@(-24)
10100f8a:	6c08           	bges 10100f94 <handle_time_string+0x5c>
10100f8c:	42ae ffcc      	clrl %fp@(-52)
10100f90:	6000 0284      	braw 10101216 <handle_time_string+0x2de>
10100f94:	42a7           	clrl %sp@-
10100f96:	4eb9 1010 152c 	jsr 1010152c <receive_message>
10100f9c:	588f           	addql #4,%sp
10100f9e:	2d40 ffe0      	movel %d0,%fp@(-32)
10100fa2:	206e ffe0      	moveal %fp@(-32),%a0
10100fa6:	2d50 ffe4      	movel %a0@,%fp@(-28)
10100faa:	202e ffe0      	movel %fp@(-32),%d0
10100fae:	2040           	moveal %d0,%a0
10100fb0:	d1fc 0000 0190 	addal #400,%a0
10100fb6:	2010           	movel %a0@,%d0
10100fb8:	2200           	movel %d0,%d1
10100fba:	0681 ffff ffd0 	addil #-48,%d1
10100fc0:	2d41 ffec      	movel %d1,%fp@(-20)
10100fc4:	4aae ffe4      	tstl %fp@(-28)
10100fc8:	660e           	bnes 10100fd8 <handle_time_string+0xa0>
10100fca:	7004           	moveq #4,%d0
10100fcc:	b0ae ffec      	cmpl %fp@(-20),%d0
10100fd0:	6d06           	blts 10100fd8 <handle_time_string+0xa0>
10100fd2:	4aae ffec      	tstl %fp@(-20)
10100fd6:	6c08           	bges 10100fe0 <handle_time_string+0xa8>
10100fd8:	42ae ffcc      	clrl %fp@(-52)
10100fdc:	6000 0238      	braw 10101216 <handle_time_string+0x2de>
10100fe0:	202e ffe8      	movel %fp@(-24),%d0
10100fe4:	2200           	movel %d0,%d1
10100fe6:	d281           	addl %d1,%d1
10100fe8:	2001           	movel %d1,%d0
10100fea:	e588           	lsll #2,%d0
10100fec:	d081           	addl %d1,%d0
10100fee:	2200           	movel %d0,%d1
10100ff0:	d2ae ffec      	addl %fp@(-20),%d1
10100ff4:	2d41 ffd2      	movel %d1,%fp@(-46)
10100ff8:	42a7           	clrl %sp@-
10100ffa:	4eb9 1010 152c 	jsr 1010152c <receive_message>
10101000:	588f           	addql #4,%sp
10101002:	2d40 ffe0      	movel %d0,%fp@(-32)
10101006:	206e ffe0      	moveal %fp@(-32),%a0
1010100a:	2d50 ffe4      	movel %a0@,%fp@(-28)
1010100e:	202e ffe0      	movel %fp@(-32),%d0
10101012:	2040           	moveal %d0,%a0
10101014:	d1fc 0000 0190 	addal #400,%a0
1010101a:	1d50 ffdf      	moveb %a0@,%fp@(-33)
1010101e:	4aae ffe4      	tstl %fp@(-28)
10101022:	660c           	bnes 10101030 <handle_time_string+0xf8>
10101024:	102e ffdf      	moveb %fp@(-33),%d0
10101028:	49c0           	extbl %d0
1010102a:	723a           	moveq #58,%d1
1010102c:	b280           	cmpl %d0,%d1
1010102e:	6708           	beqs 10101038 <handle_time_string+0x100>
10101030:	42ae ffcc      	clrl %fp@(-52)
10101034:	6000 01e0      	braw 10101216 <handle_time_string+0x2de>
10101038:	42a7           	clrl %sp@-
1010103a:	4eb9 1010 152c 	jsr 1010152c <receive_message>
10101040:	588f           	addql #4,%sp
10101042:	2d40 ffe0      	movel %d0,%fp@(-32)
10101046:	206e ffe0      	moveal %fp@(-32),%a0
1010104a:	2d50 ffe4      	movel %a0@,%fp@(-28)
1010104e:	202e ffe0      	movel %fp@(-32),%d0
10101052:	2040           	moveal %d0,%a0
10101054:	d1fc 0000 0190 	addal #400,%a0
1010105a:	2010           	movel %a0@,%d0
1010105c:	2200           	movel %d0,%d1
1010105e:	0681 ffff ffd0 	addil #-48,%d1
10101064:	2d41 fff0      	movel %d1,%fp@(-16)
10101068:	4aae ffe4      	tstl %fp@(-28)
1010106c:	660e           	bnes 1010107c <handle_time_string+0x144>
1010106e:	7005           	moveq #5,%d0
10101070:	b0ae fff0      	cmpl %fp@(-16),%d0
10101074:	6d06           	blts 1010107c <handle_time_string+0x144>
10101076:	4aae fff0      	tstl %fp@(-16)
1010107a:	6c08           	bges 10101084 <handle_time_string+0x14c>
1010107c:	42ae ffcc      	clrl %fp@(-52)
10101080:	6000 0194      	braw 10101216 <handle_time_string+0x2de>
10101084:	42a7           	clrl %sp@-
10101086:	4eb9 1010 152c 	jsr 1010152c <receive_message>
1010108c:	588f           	addql #4,%sp
1010108e:	2d40 ffe0      	movel %d0,%fp@(-32)
10101092:	206e ffe0      	moveal %fp@(-32),%a0
10101096:	2d50 ffe4      	movel %a0@,%fp@(-28)
1010109a:	202e ffe0      	movel %fp@(-32),%d0
1010109e:	2040           	moveal %d0,%a0
101010a0:	d1fc 0000 0190 	addal #400,%a0
101010a6:	2010           	movel %a0@,%d0
101010a8:	2200           	movel %d0,%d1
101010aa:	0681 ffff ffd0 	addil #-48,%d1
101010b0:	2d41 fff4      	movel %d1,%fp@(-12)
101010b4:	4aae ffe4      	tstl %fp@(-28)
101010b8:	660e           	bnes 101010c8 <handle_time_string+0x190>
101010ba:	7009           	moveq #9,%d0
101010bc:	b0ae fff4      	cmpl %fp@(-12),%d0
101010c0:	6d06           	blts 101010c8 <handle_time_string+0x190>
101010c2:	4aae fff4      	tstl %fp@(-12)
101010c6:	6c08           	bges 101010d0 <handle_time_string+0x198>
101010c8:	42ae ffcc      	clrl %fp@(-52)
101010cc:	6000 0148      	braw 10101216 <handle_time_string+0x2de>
101010d0:	202e fff0      	movel %fp@(-16),%d0
101010d4:	2200           	movel %d0,%d1
101010d6:	d281           	addl %d1,%d1
101010d8:	2001           	movel %d1,%d0
101010da:	e588           	lsll #2,%d0
101010dc:	d081           	addl %d1,%d0
101010de:	2200           	movel %d0,%d1
101010e0:	d2ae fff4      	addl %fp@(-12),%d1
101010e4:	2d41 ffd6      	movel %d1,%fp@(-42)
101010e8:	42a7           	clrl %sp@-
101010ea:	4eb9 1010 152c 	jsr 1010152c <receive_message>
101010f0:	588f           	addql #4,%sp
101010f2:	2d40 ffe0      	movel %d0,%fp@(-32)
101010f6:	206e ffe0      	moveal %fp@(-32),%a0
101010fa:	2d50 ffe4      	movel %a0@,%fp@(-28)
101010fe:	202e ffe0      	movel %fp@(-32),%d0
10101102:	2040           	moveal %d0,%a0
10101104:	d1fc 0000 0190 	addal #400,%a0
1010110a:	1d50 ffdf      	moveb %a0@,%fp@(-33)
1010110e:	4aae ffe4      	tstl %fp@(-28)
10101112:	660c           	bnes 10101120 <handle_time_string+0x1e8>
10101114:	102e ffdf      	moveb %fp@(-33),%d0
10101118:	49c0           	extbl %d0
1010111a:	723a           	moveq #58,%d1
1010111c:	b280           	cmpl %d0,%d1
1010111e:	6708           	beqs 10101128 <handle_time_string+0x1f0>
10101120:	42ae ffcc      	clrl %fp@(-52)
10101124:	6000 00f0      	braw 10101216 <handle_time_string+0x2de>
10101128:	42a7           	clrl %sp@-
1010112a:	4eb9 1010 152c 	jsr 1010152c <receive_message>
10101130:	588f           	addql #4,%sp
10101132:	2d40 ffe0      	movel %d0,%fp@(-32)
10101136:	206e ffe0      	moveal %fp@(-32),%a0
1010113a:	2d50 ffe4      	movel %a0@,%fp@(-28)
1010113e:	202e ffe0      	movel %fp@(-32),%d0
10101142:	2040           	moveal %d0,%a0
10101144:	d1fc 0000 0190 	addal #400,%a0
1010114a:	2010           	movel %a0@,%d0
1010114c:	2200           	movel %d0,%d1
1010114e:	0681 ffff ffd0 	addil #-48,%d1
10101154:	2d41 fff8      	movel %d1,%fp@(-8)
10101158:	4aae ffe4      	tstl %fp@(-28)
1010115c:	660e           	bnes 1010116c <handle_time_string+0x234>
1010115e:	7005           	moveq #5,%d0
10101160:	b0ae fff8      	cmpl %fp@(-8),%d0
10101164:	6d06           	blts 1010116c <handle_time_string+0x234>
10101166:	4aae fff8      	tstl %fp@(-8)
1010116a:	6c08           	bges 10101174 <handle_time_string+0x23c>
1010116c:	42ae ffcc      	clrl %fp@(-52)
10101170:	6000 00a4      	braw 10101216 <handle_time_string+0x2de>
10101174:	42a7           	clrl %sp@-
10101176:	4eb9 1010 152c 	jsr 1010152c <receive_message>
1010117c:	588f           	addql #4,%sp
1010117e:	2d40 ffe0      	movel %d0,%fp@(-32)
10101182:	206e ffe0      	moveal %fp@(-32),%a0
10101186:	2d50 ffe4      	movel %a0@,%fp@(-28)
1010118a:	202e ffe0      	movel %fp@(-32),%d0
1010118e:	2040           	moveal %d0,%a0
10101190:	d1fc 0000 0190 	addal #400,%a0
10101196:	2010           	movel %a0@,%d0
10101198:	2200           	movel %d0,%d1
1010119a:	0681 ffff ffd0 	addil #-48,%d1
101011a0:	2d41 fffc      	movel %d1,%fp@(-4)
101011a4:	4aae ffe4      	tstl %fp@(-28)
101011a8:	660e           	bnes 101011b8 <handle_time_string+0x280>
101011aa:	7009           	moveq #9,%d0
101011ac:	b0ae fffc      	cmpl %fp@(-4),%d0
101011b0:	6d06           	blts 101011b8 <handle_time_string+0x280>
101011b2:	4aae fffc      	tstl %fp@(-4)
101011b6:	6c06           	bges 101011be <handle_time_string+0x286>
101011b8:	42ae ffcc      	clrl %fp@(-52)
101011bc:	6058           	bras 10101216 <handle_time_string+0x2de>
101011be:	42a7           	clrl %sp@-
101011c0:	4eb9 1010 152c 	jsr 1010152c <receive_message>
101011c6:	588f           	addql #4,%sp
101011c8:	2d40 ffe0      	movel %d0,%fp@(-32)
101011cc:	206e ffe0      	moveal %fp@(-32),%a0
101011d0:	2d50 ffe4      	movel %a0@,%fp@(-28)
101011d4:	202e ffe0      	movel %fp@(-32),%d0
101011d8:	2040           	moveal %d0,%a0
101011da:	d1fc 0000 0190 	addal #400,%a0
101011e0:	1d50 ffdf      	moveb %a0@,%fp@(-33)
101011e4:	4aae ffe4      	tstl %fp@(-28)
101011e8:	660c           	bnes 101011f6 <handle_time_string+0x2be>
101011ea:	102e ffdf      	moveb %fp@(-33),%d0
101011ee:	49c0           	extbl %d0
101011f0:	720d           	moveq #13,%d1
101011f2:	b280           	cmpl %d0,%d1
101011f4:	6606           	bnes 101011fc <handle_time_string+0x2c4>
101011f6:	42ae ffcc      	clrl %fp@(-52)
101011fa:	601a           	bras 10101216 <handle_time_string+0x2de>
101011fc:	202e fff8      	movel %fp@(-8),%d0
10101200:	2200           	movel %d0,%d1
10101202:	d281           	addl %d1,%d1
10101204:	2001           	movel %d1,%d0
10101206:	e588           	lsll #2,%d0
10101208:	d081           	addl %d1,%d0
1010120a:	2200           	movel %d0,%d1
1010120c:	d2ae fffc      	addl %fp@(-4),%d1
10101210:	2d41 ffda      	movel %d1,%fp@(-38)
10101214:	6008           	bras 1010121e <handle_time_string+0x2e6>
10101216:	202e ffcc      	movel %fp@(-52),%d0
1010121a:	2d40 ffc8      	movel %d0,%fp@(-56)
1010121e:	202e ffc8      	movel %fp@(-56),%d0
10101222:	4e5e           	unlk %fp
10101224:	4e75           	rts
	...

10101228 <init_mailboxes>:
10101228:	4e56 fffc      	linkw %fp,#-4
1010122c:	42ae fffc      	clrl %fp@(-4)
10101230:	6024           	bras 10101256 <init_mailboxes+0x2e>
10101232:	202e fffc      	movel %fp@(-4),%d0
10101236:	e588           	lsll #2,%d0
10101238:	41f9 1010 2ce8 	lea 10102ce8 <mailboxStart>,%a0
1010123e:	42b0 0800      	clrl %a0@(00000000,%d0:l)
10101242:	202e fffc      	movel %fp@(-4),%d0
10101246:	e588           	lsll #2,%d0
10101248:	41f9 1010 2d04 	lea 10102d04 <mailboxEnd>,%a0
1010124e:	42b0 0800      	clrl %a0@(00000000,%d0:l)
10101252:	52ae fffc      	addql #1,%fp@(-4)
10101256:	7006           	moveq #6,%d0
10101258:	b0ae fffc      	cmpl %fp@(-4),%d0
1010125c:	6cd4           	bges 10101232 <init_mailboxes+0xa>
1010125e:	4e5e           	unlk %fp
10101260:	4e75           	rts

10101262 <send_message_jessie>:
10101262:	4e56 fff4      	linkw %fp,#-12
10101266:	2f02           	movel %d2,%sp@-
10101268:	2f2e 0008      	movel %fp@(8),%sp@-
1010126c:	4eb9 1010 05d4 	jsr 101005d4 <process_exists>
10101272:	588f           	addql #4,%sp
10101274:	4a80           	tstl %d0
10101276:	660a           	bnes 10101282 <send_message_jessie+0x20>
10101278:	7001           	moveq #1,%d0
1010127a:	2d40 fff4      	movel %d0,%fp@(-12)
1010127e:	6000 00fc      	braw 1010137c <send_message_jessie+0x11a>
10101282:	2f2e 0008      	movel %fp@(8),%sp@-
10101286:	4eb9 1010 04cc 	jsr 101004cc <get_process_number_from_ID>
1010128c:	588f           	addql #4,%sp
1010128e:	2d40 fff8      	movel %d0,%fp@(-8)
10101292:	4eb9 1010 0518 	jsr 10100518 <get_process_ID>
10101298:	2d40 fffc      	movel %d0,%fp@(-4)
1010129c:	202e 000c      	movel %fp@(12),%d0
101012a0:	2040           	moveal %d0,%a0
101012a2:	5888           	addql #4,%a0
101012a4:	20ae fffc      	movel %fp@(-4),%a0@
101012a8:	202e 000c      	movel %fp@(12),%d0
101012ac:	2040           	moveal %d0,%a0
101012ae:	5088           	addql #8,%a0
101012b0:	20ae 0008      	movel %fp@(8),%a0@
101012b4:	202e fff8      	movel %fp@(-8),%d0
101012b8:	e588           	lsll #2,%d0
101012ba:	41f9 1010 2ce8 	lea 10102ce8 <mailboxStart>,%a0
101012c0:	2030 0800      	movel %a0@(00000000,%d0:l),%d0
101012c4:	4a80           	tstl %d0
101012c6:	662a           	bnes 101012f2 <send_message_jessie+0x90>
101012c8:	202e fff8      	movel %fp@(-8),%d0
101012cc:	222e 000c      	movel %fp@(12),%d1
101012d0:	e588           	lsll #2,%d0
101012d2:	41f9 1010 2ce8 	lea 10102ce8 <mailboxStart>,%a0
101012d8:	2181 0800      	movel %d1,%a0@(00000000,%d0:l)
101012dc:	202e fff8      	movel %fp@(-8),%d0
101012e0:	222e 000c      	movel %fp@(12),%d1
101012e4:	e588           	lsll #2,%d0
101012e6:	41f9 1010 2d04 	lea 10102d04 <mailboxEnd>,%a0
101012ec:	2181 0800      	movel %d1,%a0@(00000000,%d0:l)
101012f0:	6038           	bras 1010132a <send_message_jessie+0xc8>
101012f2:	202e fff8      	movel %fp@(-8),%d0
101012f6:	e588           	lsll #2,%d0
101012f8:	41f9 1010 2d04 	lea 10102d04 <mailboxEnd>,%a0
101012fe:	2030 0800      	movel %a0@(00000000,%d0:l),%d0
10101302:	2040           	moveal %d0,%a0
10101304:	5988           	subql #4,%a0
10101306:	202e 000c      	movel %fp@(12),%d0
1010130a:	2080           	movel %d0,%a0@
1010130c:	202e 000c      	movel %fp@(12),%d0
10101310:	2040           	moveal %d0,%a0
10101312:	5988           	subql #4,%a0
10101314:	4290           	clrl %a0@
10101316:	202e fff8      	movel %fp@(-8),%d0
1010131a:	222e 000c      	movel %fp@(12),%d1
1010131e:	e588           	lsll #2,%d0
10101320:	41f9 1010 2d04 	lea 10102d04 <mailboxEnd>,%a0
10101326:	2181 0800      	movel %d1,%a0@(00000000,%d0:l)
1010132a:	42a7           	clrl %sp@-
1010132c:	2f2e 0008      	movel %fp@(8),%sp@-
10101330:	4eb9 1010 061c 	jsr 1010061c <is_waiting_for>
10101336:	508f           	addql #8,%sp
10101338:	4a80           	tstl %d0
1010133a:	673c           	beqs 10101378 <send_message_jessie+0x116>
1010133c:	2f2e 0008      	movel %fp@(8),%sp@-
10101340:	4eb9 1010 0470 	jsr 10100470 <get_process_from_ID>
10101346:	588f           	addql #4,%sp
10101348:	2f00           	movel %d0,%sp@-
1010134a:	42a7           	clrl %sp@-
1010134c:	4eb9 1010 084a 	jsr 1010084a <remove_from_blocked>
10101352:	508f           	addql #8,%sp
10101354:	2f2e 0008      	movel %fp@(8),%sp@-
10101358:	4eb9 1010 052a 	jsr 1010052a <get_process_priority_usagi_san>
1010135e:	588f           	addql #4,%sp
10101360:	2400           	movel %d0,%d2
10101362:	2f2e fffc      	movel %fp@(-4),%sp@-
10101366:	4eb9 1010 052a 	jsr 1010052a <get_process_priority_usagi_san>
1010136c:	588f           	addql #4,%sp
1010136e:	b082           	cmpl %d2,%d0
10101370:	6c06           	bges 10101378 <send_message_jessie+0x116>
10101372:	4eb9 1010 0164 	jsr 10100164 <release_processor_kuma_san>
10101378:	42ae fff4      	clrl %fp@(-12)
1010137c:	202e fff4      	movel %fp@(-12),%d0
10101380:	242e fff0      	movel %fp@(-16),%d2
10101384:	4e5e           	unlk %fp
10101386:	4e75           	rts

10101388 <receive_message_jessie>:
10101388:	4e56 ffd8      	linkw %fp,#-40
1010138c:	2f03           	movel %d3,%sp@-
1010138e:	2f02           	movel %d2,%sp@-
10101390:	4eb9 1010 0518 	jsr 10100518 <get_process_ID>
10101396:	2d40 ffe4      	movel %d0,%fp@(-28)
1010139a:	2f2e ffe4      	movel %fp@(-28),%sp@-
1010139e:	4eb9 1010 04cc 	jsr 101004cc <get_process_number_from_ID>
101013a4:	588f           	addql #4,%sp
101013a6:	2d40 ffe8      	movel %d0,%fp@(-24)
101013aa:	42ae ffec      	clrl %fp@(-20)
101013ae:	202e 000c      	movel %fp@(12),%d0
101013b2:	2200           	movel %d0,%d1
101013b4:	740a           	moveq #10,%d2
101013b6:	4c42 1803      	remsl %d2,%d3,%d1
101013ba:	4c42 1801      	remsl %d2,%d1,%d1
101013be:	2003           	movel %d3,%d0
101013c0:	2d40 fff0      	movel %d0,%fp@(-16)
101013c4:	2d6e 000c fff4 	movel %fp@(12),%fp@(-12)
101013ca:	6042           	bras 1010140e <receive_message_jessie+0x86>
101013cc:	202e fff4      	movel %fp@(-12),%d0
101013d0:	2200           	movel %d0,%d1
101013d2:	740a           	moveq #10,%d2
101013d4:	4c42 1803      	remsl %d2,%d3,%d1
101013d8:	4c42 1801      	remsl %d2,%d1,%d1
101013dc:	2003           	movel %d3,%d0
101013de:	2d40 fff0      	movel %d0,%fp@(-16)
101013e2:	202e fff4      	movel %fp@(-12),%d0
101013e6:	720a           	moveq #10,%d1
101013e8:	4c41 0802      	remsl %d1,%d2,%d0
101013ec:	4c41 0800      	remsl %d1,%d0,%d0
101013f0:	2d40 fff4      	movel %d0,%fp@(-12)
101013f4:	202e fff0      	movel %fp@(-16),%d0
101013f8:	1000           	moveb %d0,%d0
101013fa:	0680 0000 0030 	addil #48,%d0
10101400:	1000           	moveb %d0,%d0
10101402:	49c0           	extbl %d0
10101404:	2f00           	movel %d0,%sp@-
10101406:	4eb9 1010 0bcc 	jsr 10100bcc <rtx_dbug_out_char>
1010140c:	588f           	addql #4,%sp
1010140e:	4aae fff4      	tstl %fp@(-12)
10101412:	66b8           	bnes 101013cc <receive_message_jessie+0x44>
10101414:	4879 1010 1c05 	pea 10101c05 <FAILURE+0x3e>
1010141a:	4eb9 1010 0bec 	jsr 10100bec <rtx_dbug_outs>
10101420:	588f           	addql #4,%sp
10101422:	202e ffe8      	movel %fp@(-24),%d0
10101426:	e588           	lsll #2,%d0
10101428:	41f9 1010 2ce8 	lea 10102ce8 <mailboxStart>,%a0
1010142e:	43f0 0800      	lea %a0@(00000000,%d0:l),%a1
10101432:	2d51 ffec      	movel %a1@,%fp@(-20)
10101436:	4aae ffec      	tstl %fp@(-20)
1010143a:	662e           	bnes 1010146a <receive_message_jessie+0xe2>
1010143c:	2f2e ffe4      	movel %fp@(-28),%sp@-
10101440:	4eb9 1010 0470 	jsr 10100470 <get_process_from_ID>
10101446:	588f           	addql #4,%sp
10101448:	2f00           	movel %d0,%sp@-
1010144a:	42a7           	clrl %sp@-
1010144c:	4eb9 1010 0720 	jsr 10100720 <put_to_blocked>
10101452:	508f           	addql #8,%sp
10101454:	4879 1010 1c17 	pea 10101c17 <FAILURE+0x50>
1010145a:	4eb9 1010 0bec 	jsr 10100bec <rtx_dbug_outs>
10101460:	588f           	addql #4,%sp
10101462:	4eb9 1010 0164 	jsr 10100164 <release_processor_kuma_san>
10101468:	60b8           	bras 10101422 <receive_message_jessie+0x9a>
1010146a:	206e ffec      	moveal %fp@(-20),%a0
1010146e:	5188           	subql #8,%a0
10101470:	2d50 fff8      	movel %a0@,%fp@(-8)
10101474:	206e ffec      	moveal %fp@(-20),%a0
10101478:	5988           	subql #4,%a0
1010147a:	2d50 fffc      	movel %a0@,%fp@(-4)
1010147e:	4aae fffc      	tstl %fp@(-4)
10101482:	670e           	beqs 10101492 <receive_message_jessie+0x10a>
10101484:	202e fffc      	movel %fp@(-4),%d0
10101488:	5180           	subql #8,%d0
1010148a:	2040           	moveal %d0,%a0
1010148c:	20ae fff8      	movel %fp@(-8),%a0@
10101490:	6014           	bras 101014a6 <receive_message_jessie+0x11e>
10101492:	202e ffe8      	movel %fp@(-24),%d0
10101496:	222e fff8      	movel %fp@(-8),%d1
1010149a:	e588           	lsll #2,%d0
1010149c:	41f9 1010 2d04 	lea 10102d04 <mailboxEnd>,%a0
101014a2:	2181 0800      	movel %d1,%a0@(00000000,%d0:l)
101014a6:	4aae fff8      	tstl %fp@(-8)
101014aa:	670e           	beqs 101014ba <receive_message_jessie+0x132>
101014ac:	202e fff8      	movel %fp@(-8),%d0
101014b0:	5980           	subql #4,%d0
101014b2:	2040           	moveal %d0,%a0
101014b4:	20ae fffc      	movel %fp@(-4),%a0@
101014b8:	6014           	bras 101014ce <receive_message_jessie+0x146>
101014ba:	202e ffe8      	movel %fp@(-24),%d0
101014be:	222e fffc      	movel %fp@(-4),%d1
101014c2:	e588           	lsll #2,%d0
101014c4:	41f9 1010 2ce8 	lea 10102ce8 <mailboxStart>,%a0
101014ca:	2181 0800      	movel %d1,%a0@(00000000,%d0:l)
101014ce:	202e ffec      	movel %fp@(-20),%d0
101014d2:	2200           	movel %d0,%d1
101014d4:	5881           	addql #4,%d1
101014d6:	2d41 0008      	movel %d1,%fp@(8)
101014da:	202e ffec      	movel %fp@(-20),%d0
101014de:	242e ffd0      	movel %fp@(-48),%d2
101014e2:	262e ffd4      	movel %fp@(-44),%d3
101014e6:	4e5e           	unlk %fp
101014e8:	4e75           	rts

101014ea <delayed_send_umi_san>:
101014ea:	4e56 fffc      	linkw %fp,#-4
101014ee:	4e5e           	unlk %fp
101014f0:	4e75           	rts
	...

101014f4 <send_message>:
101014f4:	4e56 fff8      	linkw %fp,#-8
101014f8:	2f00           	movel %d0,%sp@-
101014fa:	202e 0008      	movel %fp@(8),%d0
101014fe:	2000           	movel %d0,%d0
10101500:	2f00           	movel %d0,%sp@-
10101502:	202e 000c      	movel %fp@(12),%d0
10101506:	2000           	movel %d0,%d0
10101508:	2f00           	movel %d0,%sp@-
1010150a:	7002           	moveq #2,%d0
1010150c:	2d40 fff8      	movel %d0,%fp@(-8)
10101510:	202e fff8      	movel %fp@(-8),%d0
10101514:	2000           	movel %d0,%d0
10101516:	4e40           	trap #0
10101518:	201f           	movel %sp@+,%d0
1010151a:	2000           	movel %d0,%d0
1010151c:	2d40 fffc      	movel %d0,%fp@(-4)
10101520:	201f           	movel %sp@+,%d0
10101522:	201f           	movel %sp@+,%d0
10101524:	202e fffc      	movel %fp@(-4),%d0
10101528:	4e5e           	unlk %fp
1010152a:	4e75           	rts

1010152c <receive_message>:
1010152c:	4e56 fff8      	linkw %fp,#-8
10101530:	2f00           	movel %d0,%sp@-
10101532:	202e 0008      	movel %fp@(8),%d0
10101536:	2000           	movel %d0,%d0
10101538:	2f00           	movel %d0,%sp@-
1010153a:	7001           	moveq #1,%d0
1010153c:	2f00           	movel %d0,%sp@-
1010153e:	7003           	moveq #3,%d0
10101540:	2d40 fff8      	movel %d0,%fp@(-8)
10101544:	202e fff8      	movel %fp@(-8),%d0
10101548:	2000           	movel %d0,%d0
1010154a:	4e40           	trap #0
1010154c:	201f           	movel %sp@+,%d0
1010154e:	2000           	movel %d0,%d0
10101550:	2d40 fffc      	movel %d0,%fp@(-4)
10101554:	201f           	movel %sp@+,%d0
10101556:	201f           	movel %sp@+,%d0
10101558:	202e fffc      	movel %fp@(-4),%d0
1010155c:	4e5e           	unlk %fp
1010155e:	4e75           	rts

10101560 <request_memory_block>:
10101560:	4e56 fff8      	linkw %fp,#-8
10101564:	2f00           	movel %d0,%sp@-
10101566:	2f00           	movel %d0,%sp@-
10101568:	7005           	moveq #5,%d0
1010156a:	2d40 fff8      	movel %d0,%fp@(-8)
1010156e:	202e fff8      	movel %fp@(-8),%d0
10101572:	2000           	movel %d0,%d0
10101574:	4e40           	trap #0
10101576:	201f           	movel %sp@+,%d0
10101578:	2000           	movel %d0,%d0
1010157a:	2d40 fffc      	movel %d0,%fp@(-4)
1010157e:	201f           	movel %sp@+,%d0
10101580:	202e fffc      	movel %fp@(-4),%d0
10101584:	4e5e           	unlk %fp
10101586:	4e75           	rts

10101588 <release_memory_block>:
10101588:	4e56 fff8      	linkw %fp,#-8
1010158c:	2f00           	movel %d0,%sp@-
1010158e:	202e 0008      	movel %fp@(8),%d0
10101592:	2000           	movel %d0,%d0
10101594:	2f00           	movel %d0,%sp@-
10101596:	7004           	moveq #4,%d0
10101598:	2d40 fff8      	movel %d0,%fp@(-8)
1010159c:	202e fff8      	movel %fp@(-8),%d0
101015a0:	2000           	movel %d0,%d0
101015a2:	4e40           	trap #0
101015a4:	201f           	movel %sp@+,%d0
101015a6:	2000           	movel %d0,%d0
101015a8:	2d40 fffc      	movel %d0,%fp@(-4)
101015ac:	201f           	movel %sp@+,%d0
101015ae:	202e fffc      	movel %fp@(-4),%d0
101015b2:	4e5e           	unlk %fp
101015b4:	4e75           	rts

101015b6 <release_processor>:
101015b6:	4e56 fff8      	linkw %fp,#-8
101015ba:	7001           	moveq #1,%d0
101015bc:	2d40 fffc      	movel %d0,%fp@(-4)
101015c0:	202e fffc      	movel %fp@(-4),%d0
101015c4:	2000           	movel %d0,%d0
101015c6:	4e40           	trap #0
101015c8:	4e5e           	unlk %fp
101015ca:	4e75           	rts

101015cc <delayed_send>:
101015cc:	4e56 fff8      	linkw %fp,#-8
101015d0:	2f00           	movel %d0,%sp@-
101015d2:	202e 0008      	movel %fp@(8),%d0
101015d6:	2000           	movel %d0,%d0
101015d8:	2f00           	movel %d0,%sp@-
101015da:	202e 000c      	movel %fp@(12),%d0
101015de:	2000           	movel %d0,%d0
101015e0:	2f00           	movel %d0,%sp@-
101015e2:	202e 0010      	movel %fp@(16),%d0
101015e6:	2000           	movel %d0,%d0
101015e8:	2f00           	movel %d0,%sp@-
101015ea:	7006           	moveq #6,%d0
101015ec:	2d40 fff8      	movel %d0,%fp@(-8)
101015f0:	202e fff8      	movel %fp@(-8),%d0
101015f4:	2000           	movel %d0,%d0
101015f6:	4e40           	trap #0
101015f8:	201f           	movel %sp@+,%d0
101015fa:	2000           	movel %d0,%d0
101015fc:	2d40 fffc      	movel %d0,%fp@(-4)
10101600:	201f           	movel %sp@+,%d0
10101602:	201f           	movel %sp@+,%d0
10101604:	201f           	movel %sp@+,%d0
10101606:	202e fffc      	movel %fp@(-4),%d0
1010160a:	4e5e           	unlk %fp
1010160c:	4e75           	rts

1010160e <set_process_priority>:
1010160e:	4e56 fff8      	linkw %fp,#-8
10101612:	2f00           	movel %d0,%sp@-
10101614:	202e 0008      	movel %fp@(8),%d0
10101618:	2000           	movel %d0,%d0
1010161a:	2f00           	movel %d0,%sp@-
1010161c:	202e 000c      	movel %fp@(12),%d0
10101620:	2000           	movel %d0,%d0
10101622:	2f00           	movel %d0,%sp@-
10101624:	7008           	moveq #8,%d0
10101626:	2d40 fff8      	movel %d0,%fp@(-8)
1010162a:	202e fff8      	movel %fp@(-8),%d0
1010162e:	2000           	movel %d0,%d0
10101630:	4e40           	trap #0
10101632:	201f           	movel %sp@+,%d0
10101634:	2000           	movel %d0,%d0
10101636:	2d40 fffc      	movel %d0,%fp@(-4)
1010163a:	201f           	movel %sp@+,%d0
1010163c:	201f           	movel %sp@+,%d0
1010163e:	202e fffc      	movel %fp@(-4),%d0
10101642:	4e5e           	unlk %fp
10101644:	4e75           	rts

10101646 <get_process_priority>:
10101646:	4e56 fff8      	linkw %fp,#-8
1010164a:	2f00           	movel %d0,%sp@-
1010164c:	202e 0008      	movel %fp@(8),%d0
10101650:	2000           	movel %d0,%d0
10101652:	2f00           	movel %d0,%sp@-
10101654:	7007           	moveq #7,%d0
10101656:	2d40 fff8      	movel %d0,%fp@(-8)
1010165a:	202e fff8      	movel %fp@(-8),%d0
1010165e:	2000           	movel %d0,%d0
10101660:	4e40           	trap #0
10101662:	201f           	movel %sp@+,%d0
10101664:	2000           	movel %d0,%d0
10101666:	2d40 fffc      	movel %d0,%fp@(-4)
1010166a:	201f           	movel %sp@+,%d0
1010166c:	202e fffc      	movel %fp@(-4),%d0
10101670:	4e5e           	unlk %fp
10101672:	4e75           	rts

10101674 <__main>:
10101674:	4e56 0000      	linkw %fp,#0
10101678:	4280           	clrl %d0
1010167a:	4e5e           	unlk %fp
1010167c:	4e75           	rts

1010167e <main>:
1010167e:	4e56 fff0      	linkw %fp,#-16
10101682:	2f02           	movel %d2,%sp@-
10101684:	203c 1010 0020 	movel #269484064,%d0
1010168a:	23c0 1000 0080 	movel %d0,10000080 <__DYNAMIC+0x10000080>
10101690:	203c 1010 0020 	movel #269484064,%d0
10101696:	23c0 1000 0080 	movel %d0,10000080 <__DYNAMIC+0x10000080>
1010169c:	4879 1010 1c2d 	pea 10101c2d <FAILURE+0x66>
101016a2:	4eb9 1010 0bec 	jsr 10100bec <rtx_dbug_outs>
101016a8:	588f           	addql #4,%sp
101016aa:	4eb9 1038 0000 	jsr 10380000 <__REGISTER_TEST_PROCS_ENTRY__>
101016b0:	4eb9 1030 0000 	jsr 10300000 <__REGISTER_RTX_ENTRY__>
101016b6:	4878 0020      	pea 20 <__DYNAMIC+0x20>
101016ba:	4eb9 1010 0af8 	jsr 10100af8 <initBlock>
101016c0:	588f           	addql #4,%sp
101016c2:	23c0 1010 2ce0 	movel %d0,10102ce0 <free_blocks>
101016c8:	4eb9 1010 1228 	jsr 10101228 <init_mailboxes>
101016ce:	42ae fff0      	clrl %fp@(-16)
101016d2:	41f9 1010 2ce4 	lea 10102ce4 <mem_end>,%a0
101016d8:	2d50 fff4      	movel %a0@,%fp@(-12)
101016dc:	42b9 1010 1cb8 	clrl 10101cb8 <__bss_start>
101016e2:	42b9 1010 1cbc 	clrl 10101cbc <prev_running_process>
101016e8:	6014           	bras 101016fe <main+0x80>
101016ea:	202e fff0      	movel %fp@(-16),%d0
101016ee:	e588           	lsll #2,%d0
101016f0:	41f9 1010 2dec 	lea 10102dec <ready_queue>,%a0
101016f6:	42b0 0800      	clrl %a0@(00000000,%d0:l)
101016fa:	52ae fff0      	addql #1,%fp@(-16)
101016fe:	7004           	moveq #4,%d0
10101700:	b0ae fff0      	cmpl %fp@(-16),%d0
10101704:	6ce4           	bges 101016ea <main+0x6c>
10101706:	42ae fff0      	clrl %fp@(-16)
1010170a:	6014           	bras 10101720 <main+0xa2>
1010170c:	202e fff0      	movel %fp@(-16),%d0
10101710:	e588           	lsll #2,%d0
10101712:	41f9 1010 2de4 	lea 10102de4 <blocked_queue>,%a0
10101718:	42b0 0800      	clrl %a0@(00000000,%d0:l)
1010171c:	52ae fff0      	addql #1,%fp@(-16)
10101720:	7201           	moveq #1,%d1
10101722:	b2ae fff0      	cmpl %fp@(-16),%d1
10101726:	6ce4           	bges 1010170c <main+0x8e>
10101728:	42ae fff0      	clrl %fp@(-16)
1010172c:	6000 01ba      	braw 101018e8 <main+0x26a>
10101730:	222e fff0      	movel %fp@(-16),%d1
10101734:	2001           	movel %d1,%d0
10101736:	e788           	lsll #3,%d0
10101738:	9081           	subl %d1,%d0
1010173a:	5280           	addql #1,%d0
1010173c:	e588           	lsll #2,%d0
1010173e:	41f9 1010 2d20 	lea 10102d20 <p>,%a0
10101744:	42b0 0800      	clrl %a0@(00000000,%d0:l)
10101748:	226e fff0      	moveal %fp@(-16),%a1
1010174c:	202e fff0      	movel %fp@(-16),%d0
10101750:	d080           	addl %d0,%d0
10101752:	2200           	movel %d0,%d1
10101754:	e589           	lsll #2,%d1
10101756:	d081           	addl %d1,%d0
10101758:	41f9 1050 0020 	lea 10500020 <g_test_proc>,%a0
1010175e:	1030 0800      	moveb %a0@(00000000,%d0:l),%d0
10101762:	4282           	clrl %d2
10101764:	1400           	moveb %d0,%d2
10101766:	2009           	movel %a1,%d0
10101768:	2200           	movel %d0,%d1
1010176a:	e589           	lsll #2,%d1
1010176c:	2001           	movel %d1,%d0
1010176e:	e788           	lsll #3,%d0
10101770:	9081           	subl %d1,%d0
10101772:	41f9 1010 2d28 	lea 10102d28 <p+0x8>,%a0
10101778:	2182 0800      	movel %d2,%a0@(00000000,%d0:l)
1010177c:	226e fff0      	moveal %fp@(-16),%a1
10101780:	202e fff0      	movel %fp@(-16),%d0
10101784:	d080           	addl %d0,%d0
10101786:	2200           	movel %d0,%d1
10101788:	e589           	lsll #2,%d1
1010178a:	d081           	addl %d1,%d0
1010178c:	41f9 1050 0020 	lea 10500020 <g_test_proc>,%a0
10101792:	1030 0801      	moveb %a0@(00000001,%d0:l),%d0
10101796:	4282           	clrl %d2
10101798:	1400           	moveb %d0,%d2
1010179a:	2009           	movel %a1,%d0
1010179c:	2200           	movel %d0,%d1
1010179e:	e589           	lsll #2,%d1
101017a0:	2001           	movel %d1,%d0
101017a2:	e788           	lsll #3,%d0
101017a4:	9081           	subl %d1,%d0
101017a6:	41f9 1010 2d30 	lea 10102d30 <p+0x10>,%a0
101017ac:	2182 0800      	movel %d2,%a0@(00000000,%d0:l)
101017b0:	222e fff0      	movel %fp@(-16),%d1
101017b4:	2001           	movel %d1,%d0
101017b6:	e588           	lsll #2,%d0
101017b8:	d081           	addl %d1,%d0
101017ba:	5280           	addql #1,%d0
101017bc:	d080           	addl %d0,%d0
101017be:	41f9 1050 0020 	lea 10500020 <g_test_proc>,%a0
101017c4:	2030 0800      	movel %a0@(00000000,%d0:l),%d0
101017c8:	e488           	lsrl #2,%d0
101017ca:	e588           	lsll #2,%d0
101017cc:	d1ae fff4      	addl %d0,%fp@(-12)
101017d0:	202e fff0      	movel %fp@(-16),%d0
101017d4:	226e fff4      	moveal %fp@(-12),%a1
101017d8:	2200           	movel %d0,%d1
101017da:	e589           	lsll #2,%d1
101017dc:	2001           	movel %d1,%d0
101017de:	e788           	lsll #3,%d0
101017e0:	9081           	subl %d1,%d0
101017e2:	41f9 1010 2d20 	lea 10102d20 <p>,%a0
101017e8:	2189 0800      	movel %a1,%a0@(00000000,%d0:l)
101017ec:	202e fff0      	movel %fp@(-16),%d0
101017f0:	2200           	movel %d0,%d1
101017f2:	e589           	lsll #2,%d1
101017f4:	2001           	movel %d1,%d0
101017f6:	e788           	lsll #3,%d0
101017f8:	9081           	subl %d1,%d0
101017fa:	41f9 1010 2d38 	lea 10102d38 <p+0x18>,%a0
10101800:	72ff           	moveq #-1,%d1
10101802:	2181 0800      	movel %d1,%a0@(00000000,%d0:l)
10101806:	200f           	movel %sp,%d0
10101808:	2d40 fffc      	movel %d0,%fp@(-4)
1010180c:	202e fff0      	movel %fp@(-16),%d0
10101810:	2200           	movel %d0,%d1
10101812:	e589           	lsll #2,%d1
10101814:	2001           	movel %d1,%d0
10101816:	e788           	lsll #3,%d0
10101818:	9081           	subl %d1,%d0
1010181a:	41f9 1010 2d20 	lea 10102d20 <p>,%a0
10101820:	2030 0800      	movel %a0@(00000000,%d0:l),%d0
10101824:	2d40 fff8      	movel %d0,%fp@(-8)
10101828:	202e fff8      	movel %fp@(-8),%d0
1010182c:	2e40           	moveal %d0,%sp
1010182e:	202e fff0      	movel %fp@(-16),%d0
10101832:	d080           	addl %d0,%d0
10101834:	2200           	movel %d0,%d1
10101836:	e589           	lsll #2,%d1
10101838:	d081           	addl %d1,%d0
1010183a:	41f9 1050 0026 	lea 10500026 <g_test_proc+0x6>,%a0
10101840:	2030 0800      	movel %a0@(00000000,%d0:l),%d0
10101844:	2d40 fff8      	movel %d0,%fp@(-8)
10101848:	202e fff8      	movel %fp@(-8),%d0
1010184c:	2000           	movel %d0,%d0
1010184e:	2f00           	movel %d0,%sp@-
10101850:	7004           	moveq #4,%d0
10101852:	2d40 fff8      	movel %d0,%fp@(-8)
10101856:	202e fff8      	movel %fp@(-8),%d0
1010185a:	3000           	movew %d0,%d0
1010185c:	3f00           	movew %d0,%sp@-
1010185e:	223c 0000 4080 	movel #16512,%d1
10101864:	2d41 fff8      	movel %d1,%fp@(-8)
10101868:	202e fff8      	movel %fp@(-8),%d0
1010186c:	3000           	movew %d0,%d0
1010186e:	3f00           	movew %d0,%sp@-
10101870:	226e fff0      	moveal %fp@(-16),%a1
10101874:	202e fff0      	movel %fp@(-16),%d0
10101878:	2200           	movel %d0,%d1
1010187a:	e589           	lsll #2,%d1
1010187c:	2001           	movel %d1,%d0
1010187e:	e788           	lsll #3,%d0
10101880:	9081           	subl %d1,%d0
10101882:	41f9 1010 2d20 	lea 10102d20 <p>,%a0
10101888:	2030 0800      	movel %a0@(00000000,%d0:l),%d0
1010188c:	2400           	movel %d0,%d2
1010188e:	5182           	subql #8,%d2
10101890:	2009           	movel %a1,%d0
10101892:	2200           	movel %d0,%d1
10101894:	e589           	lsll #2,%d1
10101896:	2001           	movel %d1,%d0
10101898:	e788           	lsll #3,%d0
1010189a:	9081           	subl %d1,%d0
1010189c:	41f9 1010 2d20 	lea 10102d20 <p>,%a0
101018a2:	2182 0800      	movel %d2,%a0@(00000000,%d0:l)
101018a6:	202e fffc      	movel %fp@(-4),%d0
101018aa:	2e40           	moveal %d0,%sp
101018ac:	202e fff0      	movel %fp@(-16),%d0
101018b0:	2200           	movel %d0,%d1
101018b2:	e589           	lsll #2,%d1
101018b4:	2001           	movel %d1,%d0
101018b6:	e788           	lsll #3,%d0
101018b8:	9081           	subl %d1,%d0
101018ba:	0680 1010 2d20 	addil #269495584,%d0
101018c0:	2f00           	movel %d0,%sp@-
101018c2:	4eb9 1010 068c 	jsr 1010068c <put_to_ready>
101018c8:	588f           	addql #4,%sp
101018ca:	202e fff0      	movel %fp@(-16),%d0
101018ce:	2200           	movel %d0,%d1
101018d0:	e589           	lsll #2,%d1
101018d2:	2001           	movel %d1,%d0
101018d4:	e788           	lsll #3,%d0
101018d6:	9081           	subl %d1,%d0
101018d8:	41f9 1010 2d2c 	lea 10102d2c <p+0xc>,%a0
101018de:	7203           	moveq #3,%d1
101018e0:	2181 0800      	movel %d1,%a0@(00000000,%d0:l)
101018e4:	52ae fff0      	addql #1,%fp@(-16)
101018e8:	7005           	moveq #5,%d0
101018ea:	b0ae fff0      	cmpl %fp@(-16),%d0
101018ee:	6c00 fe40      	bgew 10101730 <main+0xb2>
101018f2:	223c 0000 0800 	movel #2048,%d1
101018f8:	d3ae fff4      	addl %d1,%fp@(-12)
101018fc:	2f2e fff4      	movel %fp@(-12),%sp@-
10101900:	4879 1010 2e00 	pea 10102e00 <null_p>
10101906:	4eb9 1010 00b2 	jsr 101000b2 <init_null_process>
1010190c:	508f           	addql #8,%sp
1010190e:	203c 0000 0800 	movel #2048,%d0
10101914:	d1ae fff4      	addl %d0,%fp@(-12)
10101918:	2f2e fff4      	movel %fp@(-12),%sp@-
1010191c:	4879 1010 2dc8 	pea 10102dc8 <p+0xa8>
10101922:	4eb9 1010 0c28 	jsr 10100c28 <init_kcd>
10101928:	508f           	addql #8,%sp
1010192a:	223c 0000 0800 	movel #2048,%d1
10101930:	d3ae fff4      	addl %d1,%fp@(-12)
10101934:	2f2e fff4      	movel %fp@(-12),%sp@-
10101938:	4879 1010 2dc8 	pea 10102dc8 <p+0xa8>
1010193e:	4eb9 1010 0c28 	jsr 10100c28 <init_kcd>
10101944:	508f           	addql #8,%sp
10101946:	4879 1010 1c44 	pea 10101c44 <FAILURE+0x7d>
1010194c:	4eb9 1010 0bec 	jsr 10100bec <rtx_dbug_outs>
10101952:	588f           	addql #4,%sp
10101954:	4eba 0038      	jsr %pc@(1010198e <init_interrupts>)
10101958:	4879 1010 1c4f 	pea 10101c4f <FAILURE+0x88>
1010195e:	4eb9 1010 0bec 	jsr 10100bec <rtx_dbug_outs>
10101964:	588f           	addql #4,%sp
10101966:	4eb9 1010 0192 	jsr 10100192 <schedule_next_process>
1010196c:	4280           	clrl %d0
1010196e:	242e ffec      	movel %fp@(-20),%d2
10101972:	4e5e           	unlk %fp
10101974:	4e75           	rts

10101976 <coldfire_vbr_init>:
10101976:	4e56 0000      	linkw %fp,#0
1010197a:	2f08           	movel %a0,%sp@-
1010197c:	207c 1000 0000 	moveal #268435456,%a0
10101982:	4e7b 8801      	movec %a0,%vbr
10101986:	205f           	moveal %sp@+,%a0
10101988:	4280           	clrl %d0
1010198a:	4e5e           	unlk %fp
1010198c:	4e75           	rts

1010198e <init_interrupts>:
1010198e:	4e56 fffc      	linkw %fp,#-4
10101992:	46fc 2700      	movew #9984,%sr
10101996:	4eba ffde      	jsr %pc@(10101976 <coldfire_vbr_init>)
1010199a:	203c 1010 0064 	movel #269484132,%d0
101019a0:	23c0 1000 0100 	movel %d0,10000100 <__DYNAMIC+0x10000100>
101019a6:	207c f000 0208 	moveal #-268434936,%a0
101019ac:	10bc 0010      	moveb #16,%a0@
101019b0:	207c f000 0208 	moveal #-268434936,%a0
101019b6:	10bc 0020      	moveb #32,%a0@
101019ba:	207c f000 0208 	moveal #-268434936,%a0
101019c0:	10bc 0030      	moveb #48,%a0@
101019c4:	207c f000 0208 	moveal #-268434936,%a0
101019ca:	10bc 0040      	moveb #64,%a0@
101019ce:	207c f000 0051 	moveal #-268435375,%a0
101019d4:	10bc 0017      	moveb #23,%a0@
101019d8:	207c f000 0230 	moveal #-268434896,%a0
101019de:	10bc 0040      	moveb #64,%a0@
101019e2:	207c f000 0214 	moveal #-268434924,%a0
101019e8:	10bc 0002      	moveb #2,%a0@
101019ec:	207c f000 0218 	moveal #-268434920,%a0
101019f2:	4210           	clrb %a0@
101019f4:	207c f000 021c 	moveal #-268434916,%a0
101019fa:	10bc ff92      	moveb #-110,%a0@
101019fe:	207c f000 0204 	moveal #-268434940,%a0
10101a04:	10bc ffdd      	moveb #-35,%a0@
10101a08:	207c f000 0200 	moveal #-268434944,%a0
10101a0e:	10bc 0013      	moveb #19,%a0@
10101a12:	207c f000 0200 	moveal #-268434944,%a0
10101a18:	10bc 0007      	moveb #7,%a0@
10101a1c:	207c f000 0208 	moveal #-268434936,%a0
10101a22:	10bc 0005      	moveb #5,%a0@
10101a26:	207c f000 0044 	moveal #-268435388,%a0
10101a2c:	2d50 fffc      	movel %a0@,%fp@(-4)
10101a30:	203c 0003 dfff 	movel #253951,%d0
10101a36:	c1ae fffc      	andl %d0,%fp@(-4)
10101a3a:	207c f000 0044 	moveal #-268435388,%a0
10101a40:	20ae fffc      	movel %fp@(-4),%a0@
10101a44:	46fc 2000      	movew #8192,%sr
10101a48:	4e5e           	unlk %fp
10101a4a:	4e75           	rts

10101a4c <uart_i_process>:
10101a4c:	4e56 fffc      	linkw %fp,#-4
10101a50:	207c f000 0204 	moveal #-268434940,%a0
10101a56:	1d50 ffff      	moveb %a0@,%fp@(-1)
10101a5a:	4280           	clrl %d0
10101a5c:	102e ffff      	moveb %fp@(-1),%d0
10101a60:	7201           	moveq #1,%d1
10101a62:	c081           	andl %d1,%d0
10101a64:	1000           	moveb %d0,%d0
10101a66:	4a00           	tstb %d0
10101a68:	671c           	beqs 10101a86 <uart_i_process+0x3a>
10101a6a:	207c f000 020c 	moveal #-268434932,%a0
10101a70:	1010           	moveb %a0@,%d0
10101a72:	13c0 1010 2e1d 	moveb %d0,10102e1d <charIn>
10101a78:	207c f000 0214 	moveal #-268434924,%a0
10101a7e:	10bc 0003      	moveb #3,%a0@
10101a82:	6000 0086      	braw 10101b0a <uart_i_process+0xbe>
10101a86:	4280           	clrl %d0
10101a88:	102e ffff      	moveb %fp@(-1),%d0
10101a8c:	7204           	moveq #4,%d1
10101a8e:	c081           	andl %d1,%d0
10101a90:	4a80           	tstl %d0
10101a92:	6776           	beqs 10101b0a <uart_i_process+0xbe>
10101a94:	1039 1010 2e1d 	moveb 10102e1d <charIn>,%d0
10101a9a:	13c0 1010 2e1c 	moveb %d0,10102e1c <charOut>
10101aa0:	207c f000 020c 	moveal #-268434932,%a0
10101aa6:	1039 1010 2e1c 	moveb 10102e1c <charOut>,%d0
10101aac:	1080           	moveb %d0,%a0@
10101aae:	4879 1010 1c98 	pea 10101c98 <FAILURE+0xd1>
10101ab4:	4eb9 1010 0bec 	jsr 10100bec <rtx_dbug_outs>
10101aba:	588f           	addql #4,%sp
10101abc:	1039 1010 2e1c 	moveb 10102e1c <charOut>,%d0
10101ac2:	49c0           	extbl %d0
10101ac4:	2f00           	movel %d0,%sp@-
10101ac6:	4eb9 1010 0bcc 	jsr 10100bcc <rtx_dbug_out_char>
10101acc:	588f           	addql #4,%sp
10101ace:	4879 1010 1ca3 	pea 10101ca3 <FAILURE+0xdc>
10101ad4:	4eb9 1010 0bec 	jsr 10100bec <rtx_dbug_outs>
10101ada:	588f           	addql #4,%sp
10101adc:	207c f000 0214 	moveal #-268434924,%a0
10101ae2:	10bc 0002      	moveb #2,%a0@
10101ae6:	1039 1010 2e1c 	moveb 10102e1c <charOut>,%d0
10101aec:	49c0           	extbl %d0
10101aee:	720d           	moveq #13,%d1
10101af0:	b280           	cmpl %d0,%d1
10101af2:	6616           	bnes 10101b0a <uart_i_process+0xbe>
10101af4:	700a           	moveq #10,%d0
10101af6:	13c0 1010 2e1c 	moveb %d0,10102e1c <charOut>
10101afc:	207c f000 020c 	moveal #-268434932,%a0
10101b02:	1039 1010 2e1c 	moveb 10102e1c <charOut>,%d0
10101b08:	1080           	moveb %d0,%a0@
10101b0a:	4e5e           	unlk %fp
10101b0c:	4e75           	rts
	...

10101b10 <__CTOR_LIST__>:
	...

10101b18 <__CTOR_END__>:
	...

10101b20 <__DTOR_END__>:
10101b20:	7363           	071543
10101b22:	6865           	bvcs 10101b89 <__DTOR_END__+0x69>
10101b24:	6475           	bccs 10101b9b <__DTOR_END__+0x7b>
10101b26:	6c65           	bges 10101b8d <__DTOR_END__+0x6d>
10101b28:	6420           	bccs 10101b4a <__DTOR_END__+0x2a>
10101b2a:	6e65           	bgts 10101b91 <__DTOR_END__+0x71>
10101b2c:	7874           	moveq #116,%d4
10101b2e:	2070 726f      	moveal %a0@(0000006f,%d7:w:2),%a0
10101b32:	6365           	blss 10101b99 <__DTOR_END__+0x79>
10101b34:	7373           	071563
10101b36:	206e 656b      	moveal %fp@(25963),%a0
10101b3a:	6f2d           	bles 10101b69 <__DTOR_END__+0x49>
10101b3c:	7361           	071541
10101b3e:	6e20           	bgts 10101b60 <__DTOR_END__+0x40>
10101b40:	0d0a           	06412
10101b42:	006c           	0154
10101b44:	6f6f           	bles 10101bb5 <__DTOR_END__+0x95>
10101b46:	7069           	moveq #105,%d0
10101b48:	6e67           	bgts 10101bb1 <__DTOR_END__+0x91>
10101b4a:	2069 6e20      	moveal %a1@(28192),%a0
10101b4e:	7265           	moveq #101,%d1
10101b50:	6164           	bsrs 10101bb6 <__DTOR_END__+0x96>
10101b52:	7920           	074440
10101b54:	7175           	070565
10101b56:	6575           	bcss 10101bcd <FAILURE+0x6>
10101b58:	6520           	bcss 10101b7a <__DTOR_END__+0x5a>
10101b5a:	0d0a           	06412
10101b5c:	0067           	0147
10101b5e:	6574           	bcss 10101bd4 <FAILURE+0xd>
10101b60:	7469           	moveq #105,%d2
10101b62:	6e67           	bgts 10101bcb <FAILURE+0x4>
10101b64:	2074 6865      	moveal %a4@(00000065,%d6:l),%a0
10101b68:	2073 616d 6520 	moveal %a3@(00006520)@(00000000),%a0
10101b6e:	7072           	moveq #114,%d0
10101b70:	6f63           	bles 10101bd5 <FAILURE+0xe>
10101b72:	6573           	bcss 10101be7 <FAILURE+0x20>
10101b74:	730d           	071415
10101b76:	0a00           	05000
10101b78:	6578           	bcss 10101bf2 <FAILURE+0x2b>
10101b7a:	6974           	bvss 10101bf0 <FAILURE+0x29>
10101b7c:	6564           	bcss 10101be2 <FAILURE+0x1b>
10101b7e:	2073 6368 6564 	moveal %a3@(00006564),%a0
10101b84:	756c           	072554
10101b86:	6564           	bcss 10101bec <FAILURE+0x25>
10101b88:	206e 6578      	moveal %fp@(25976),%a0
10101b8c:	7420           	moveq #32,%d2
10101b8e:	7072           	moveq #114,%d0
10101b90:	6f63           	bles 10101bf5 <FAILURE+0x2e>
10101b92:	6573           	bcss 10101c07 <FAILURE+0x40>
10101b94:	7320           	071440
10101b96:	6e65           	bgts 10101bfd <FAILURE+0x36>
10101b98:	6b6f           	bmis 10101c09 <FAILURE+0x42>
10101b9a:	2d73           	026563
10101b9c:	616e           	bsrs 10101c0c <FAILURE+0x45>
10101b9e:	200d           	movel %a5,%d0
10101ba0:	0a00           	05000
10101ba2:	7274           	moveq #116,%d1
10101ba4:	783a           	moveq #58,%d4
10101ba6:	2072 656d 6f76 	moveal %a2@(00006f76)@(00000000),%a0
10101bac:	6520           	bcss 10101bce <FAILURE+0x7>
10101bae:	6669           	bnes 10101c19 <FAILURE+0x52>
10101bb0:	7273           	moveq #115,%d1
10101bb2:	7420           	moveq #32,%d2
10101bb4:	6672           	bnes 10101c28 <FAILURE+0x61>
10101bb6:	6f6d           	bles 10101c25 <FAILURE+0x5e>
10101bb8:	2062           	moveal %a2@-,%a0
10101bba:	6c6f           	bges 10101c2b <FAILURE+0x64>
10101bbc:	636b           	blss 10101c29 <FAILURE+0x62>
10101bbe:	6564           	bcss 10101c24 <FAILURE+0x5d>
10101bc0:	200d           	movel %a5,%d0
10101bc2:	0a00           	05000

10101bc4 <USED>:
10101bc4:	0100                                             .

10101bc5 <FREE>:
	...

10101bc6 <SUCCESS>:
	...

10101bc7 <FAILURE>:
10101bc7:	0162 6c6f 636b 6564 206f 6e20 7265 7175     .blocked on requ
10101bd7:	6573 7469 6e67 206d 656d 6f72 7900 696e     esting memory.in
10101be7:	6974 5f6b 6364 200d 0a00 696e 6974 5f6b     it_kcd ...init_k
10101bf7:	6364 3a20 6578 6974 6564 200d 0a00 202d     cd: exited ... -
10101c07:	2d2d 2d2d 2d2d 3e20 7061 726d 310d 0a00     ------> parm1...
10101c17:	4e6f 206d 6573 7361 6765 2c20 626c 6f63     No message, bloc
10101c27:	6b65 640d 0a00 7274 783a 2045 6e74 6572     ked...rtx: Enter
10101c37:	696e 6720 6d61 696e 2829 0d0a 006d 7561     ing main()...mua
10101c47:	6861 6861 2e0a 0d00 5465 6565 6865 6565     haha....Teeeheee
10101c57:	2e0a 0d00 7274 783a 2045 6e74 6572 696e     ....rtx: Enterin
10101c67:	6720 7265 6769 7374 6572 5f72 7478 2829     g register_rtx()
10101c77:	0d0a 0072 7478 3a20 6c65 6176 696e 6720     ...rtx: leaving 
10101c87:	7265 6769 7374 6572 5f72 7478 2829 0d0a     register_rtx()..
10101c97:	0079 6f75 2074 7970 6564 2000 0a0d 004e          .you typed ....

10101ca6 <__INIT_SECTION__>:
10101ca6:	4e56 0000      	linkw %fp,#0
10101caa:	4e5e           	unlk %fp
10101cac:	4e75           	rts

10101cae <__FINI_SECTION__>:
10101cae:	4e56 0000      	linkw %fp,#0
10101cb2:	4e5e           	unlk %fp
10101cb4:	4e75           	rts
Disassembly of section __REGISTER_RTX__:

10300000 <register_rtx>:
10300000:	4e56 0000      	linkw %fp,#0
10300004:	4879 1010 1c5b 	pea 10101c5b <FAILURE+0x94>
1030000a:	4eb9 1010 0bec 	jsr 10100bec <rtx_dbug_outs>
10300010:	588f           	addql #4,%sp
10300012:	203c 1010 14f4 	movel #269489396,%d0
10300018:	23c0 1050 0000 	movel %d0,10500000 <g_test_fixture>
1030001e:	203c 1010 152c 	movel #269489452,%d0
10300024:	23c0 1050 0004 	movel %d0,10500004 <g_test_fixture+0x4>
1030002a:	203c 1010 1560 	movel #269489504,%d0
10300030:	23c0 1050 0008 	movel %d0,10500008 <g_test_fixture+0x8>
10300036:	203c 1010 1588 	movel #269489544,%d0
1030003c:	23c0 1050 000c 	movel %d0,1050000c <g_test_fixture+0xc>
10300042:	203c 1010 15b6 	movel #269489590,%d0
10300048:	23c0 1050 0010 	movel %d0,10500010 <g_test_fixture+0x10>
1030004e:	203c 1010 15cc 	movel #269489612,%d0
10300054:	23c0 1050 0014 	movel %d0,10500014 <g_test_fixture+0x14>
1030005a:	203c 1010 160e 	movel #269489678,%d0
10300060:	23c0 1050 0018 	movel %d0,10500018 <g_test_fixture+0x18>
10300066:	203c 1010 1646 	movel #269489734,%d0
1030006c:	23c0 1050 001c 	movel %d0,1050001c <g_test_fixture+0x1c>
10300072:	4879 1010 1c7a 	pea 10101c7a <FAILURE+0xb3>
10300078:	4eb9 1010 0bec 	jsr 10100bec <rtx_dbug_outs>
1030007e:	588f           	addql #4,%sp
10300080:	4e5e           	unlk %fp
10300082:	4e75           	rts
