
Allocating common symbols
Common symbol       size              file

p                   0xcc              main_rtx.o
blocked_queue       0x18              process.o
old_stack           0x4               /tmp/cchMb95m.o
ready_queue         0x14              process.o
free_blocks         0x4               process.o
main_stack          0x1000            /tmp/cchMb95m.o
mem_end             0x4               memory.o

Memory Configuration

Name             Origin             Length             Attributes
ram              0x10100000         0x00100000
*default*        0x00000000         0xffffffff

Linker script and memory map

LOAD /tmp/cchMb95m.o
LOAD process.o
LOAD init.o
LOAD memory.o
LOAD dbug.o
LOAD rtx.o
LOAD main_rtx.o
START GROUP
LOAD /opt/gcc-coldfire/bin/../lib/gcc/m68k-elf/4.3.2/m5307/libgcc.a
END GROUP
                0x00000000                __DYNAMIC = 0x0
                0x00000000                PROVIDE (hardware_init_hook, 0x0)
                0x00000000                PROVIDE (_hardware_init_hook, 0x0)
                0x00000000                PROVIDE (software_init_hook, 0x0)
                0x00000000                PROVIDE (_software_init_hook, 0x0)

.text           0x10100000      0xd8a
 *(.text)
 .text          0x10100000       0x1e /tmp/cchMb95m.o
 *fill*         0x1010001e        0x2 00
 .text          0x10100020      0x2ba process.o
                0x10100020                release_processor_BACK
                0x1010023a                schedule_next_process
 *fill*         0x101002da        0x2 00
 .text          0x101002dc      0x1e8 init.o
                0x10100366                put_to_blocked
                0x101002dc                put_to_ready
                0x10100474                pop
                0x10100424                remove_from_blocked
                0x101003e4                remove_from_ready
                0x1010049e                push
 .text          0x101004c4      0x270 memory.o
                0x1010052a                s_release_memory_block
                0x101004c4                s_request_memory_block
                0x1010062a                initBlock
 .text          0x10100734       0x5c dbug.o
                0x10100754                rtx_dbug_outs
                0x10100734                rtx_dbug_out_char
 .text          0x10100790       0xbe rtx.o
                0x10100836                get_process_priority
                0x101007be                request_memory_block
                0x1010081e                set_process_priority
                0x10100790                send_message
                0x101007d6                release_memory_block
                0x101007a8                receive_message
                0x10100806                delayed_send
                0x101007ee                release_processor
 *fill*         0x1010084e        0x2 00
 .text          0x10100850      0x28a main_rtx.o
                0x10100850                __main
                0x1010085a                main
                0x10100adc                . = ALIGN (0x4)
 *fill*         0x10100ada        0x2 00
                0x10100adc                __CTOR_LIST__ = .
                0x10100adc        0x4 LONG 0x0 (((__CTOR_END__ - __CTOR_LIST__) / 0x4) - 0x2)
 *(.ctors)
                0x10100ae0        0x4 LONG 0x0
                0x10100ae4                __CTOR_END__ = .
                0x10100ae4                __DTOR_LIST__ = .
                0x10100ae4        0x4 LONG 0x0 (((__DTOR_END__ - __DTOR_LIST__) / 0x4) - 0x2)
 *(.dtors)
                0x10100ae8        0x4 LONG 0x0
                0x10100aec                __DTOR_END__ = .
 *(.rodata*)
 .rodata        0x10100aec       0x40 process.o
 .rodata        0x10100b2c       0x25 init.o
 .rodata        0x10100b51       0x7c memory.o
                0x10100b52                FREE
                0x10100b54                FAILURE
                0x10100b53                SUCCESS
                0x10100b51                USED
 .rodata        0x10100bcd       0xd0 rtx.o
 .rodata        0x10100c9d       0xdd main_rtx.o
 *(.gcc_except_table)
                0x10100d7a                __INIT_SECTION__ = .
                0x10100d7a        0x4 LONG 0x4e560000
 *(.init)
                0x10100d7e        0x2 SHORT 0x4e5e
                0x10100d80        0x2 SHORT 0x4e75
                0x10100d82                __FINI_SECTION__ = .
                0x10100d82        0x4 LONG 0x4e560000
 *(.fini)
                0x10100d86        0x2 SHORT 0x4e5e
                0x10100d88        0x2 SHORT 0x4e75
                0x10100d8a                _etext = .
 *(.lit)

.data           0x10100d8c        0x0
 *(.shdata)
 *(.data)
 .data          0x10100d8c        0x0 /tmp/cchMb95m.o
 .data          0x10100d8c        0x0 process.o
 .data          0x10100d8c        0x0 init.o
 .data          0x10100d8c        0x0 memory.o
 .data          0x10100d8c        0x0 dbug.o
 .data          0x10100d8c        0x0 rtx.o
 .data          0x10100d8c        0x0 main_rtx.o
                0x10100d8c                _edata = .

.bss            0x10100d8c     0x1124
                0x10100d8c                __bss_start = .
 *(.shbss)
 *(.bss)
 .bss           0x10100d8c        0x0 /tmp/cchMb95m.o
 .bss           0x10100d8c        0x4 process.o
                0x10100d8c                current_running_process
 .bss           0x10100d90        0x4 init.o
                0x10100d90                used_blocks
 .bss           0x10100d94        0x0 memory.o
 .bss           0x10100d94        0x0 dbug.o
 .bss           0x10100d94        0x0 rtx.o
 .bss           0x10100d94        0x0 main_rtx.o
 *(COMMON)
 *fill*         0x10100d94        0xc 00
 COMMON         0x10100da0     0x1010 /tmp/cchMb95m.o
                0x10100da0                old_stack
                0x10100db0                main_stack
 COMMON         0x10101db0       0x30 process.o
                0x10101db0                blocked_queue
                0x10101dc8                ready_queue
                0x10101ddc                free_blocks
 COMMON         0x10101de0        0x4 memory.o
                0x10101de0                mem_end
 COMMON         0x10101de4       0xcc main_rtx.o
                0x10101de4                p
                0x10101eb0                _end = ALIGN (0x8)
                0x10101eb0                __end = _end

.stab
 *(.stab)

.stabstr
 *(.stabstr)

__REGISTER_RTX__
                0x10300000       0x84
                0x10300000                __REGISTER_RTX_ENTRY__ = <code 345> (.)
 *(__REGISTER_RTX__)
 __REGISTER_RTX__
                0x10300000       0x84 main_rtx.o
                0x10300000                register_rtx
                0x10380000                __REGISTER_TEST_PROCS_ENTRY__ = 0x10380000
                0x10400000                __RTX_TEST_CODE_ENTRY__ = 0x10400000

__RTX_TEST_DATA__
                0x10500000       0x5c
 *(__RTX_TEST_DATA__)
 __RTX_TEST_DATA__
                0x10500000       0x5c main_rtx.o
                0x10500020                g_test_proc
                0x10500000                g_test_fixture
OUTPUT(rtx.bin elf32-m68k)

.comment        0x00000000       0xea
 .comment       0x00000000       0x27 process.o
 .comment       0x00000027       0x27 init.o
 .comment       0x0000004e       0x27 memory.o
 .comment       0x00000075       0x27 dbug.o
 .comment       0x0000009c       0x27 rtx.o
 .comment       0x000000c3       0x27 main_rtx.o
